
/opt/riscv/riscv64-unknown-elf/bin/bbl:     file format elf64-littleriscv


Disassembly of section .text:

0000000000000000 <_ftext>:
       0:	1bc0006f          	j	1bc <do_reset>

0000000000000004 <nmi_vector>:
       4:	7fc0006f          	j	800 <bad_trap>

0000000000000008 <trap_vector>:
       8:	34011173          	csrrw	sp,mscratch,sp
       c:	16010c63          	beqz	sp,184 <restore_regs+0x80>
      10:	04a13823          	sd	a0,80(sp)
      14:	04b13c23          	sd	a1,88(sp)
      18:	342025f3          	csrr	a1,mcause
      1c:	0405d663          	bgez	a1,68 <trap_vector+0x60>
      20:	00159593          	slli	a1,a1,0x1
      24:	00e00513          	li	a0,14
      28:	02b51263          	bne	a0,a1,4c <trap_vector+0x44>
      2c:	08000513          	li	a0,128
      30:	30453073          	csrc	mie,a0
      34:	02000513          	li	a0,32
      38:	34452073          	csrs	mip,a0
      3c:	05013503          	ld	a0,80(sp)
      40:	05813583          	ld	a1,88(sp)
      44:	34011173          	csrrw	sp,mscratch,sp
      48:	10200073          	eret
      4c:	00600513          	li	a0,6
      50:	00b51663          	bne	a0,a1,5c <trap_vector+0x54>
      54:	00d00593          	li	a1,13
      58:	0100006f          	j	68 <trap_vector+0x60>
      5c:	01a00513          	li	a0,26
      60:	fab512e3          	bne	a0,a1,4 <nmi_vector>
      64:	00c00593          	li	a1,12
      68:	00113423          	sd	ra,8(sp)
      6c:	00313c23          	sd	gp,24(sp)
      70:	02413023          	sd	tp,32(sp)
      74:	02513423          	sd	t0,40(sp)
      78:	00006297          	auipc	t0,0x6
      7c:	02613823          	sd	t1,48(sp)
      80:	00259313          	slli	t1,a1,0x2
      84:	02713c23          	sd	t2,56(sp)
      88:	00628333          	add	t1,t0,t1
      8c:	04813023          	sd	s0,64(sp)
      90:	68832303          	lw	t1,1672(t1)
      94:	04913423          	sd	s1,72(sp)
      98:	00010513          	mv	a0,sp
      9c:	06c13023          	sd	a2,96(sp)
      a0:	34102673          	csrr	a2,mepc
      a4:	06d13423          	sd	a3,104(sp)
      a8:	340012f3          	csrrw	t0,mscratch,zero
      ac:	06e13823          	sd	a4,112(sp)
      b0:	06f13c23          	sd	a5,120(sp)
      b4:	09013023          	sd	a6,128(sp)
      b8:	09113423          	sd	a7,136(sp)
      bc:	09213823          	sd	s2,144(sp)
      c0:	09313c23          	sd	s3,152(sp)
      c4:	0b413023          	sd	s4,160(sp)
      c8:	0b513423          	sd	s5,168(sp)
      cc:	0b613823          	sd	s6,176(sp)
      d0:	0b713c23          	sd	s7,184(sp)
      d4:	0d813023          	sd	s8,192(sp)
      d8:	0d913423          	sd	s9,200(sp)
      dc:	0da13823          	sd	s10,208(sp)
      e0:	0db13c23          	sd	s11,216(sp)
      e4:	0fc13023          	sd	t3,224(sp)
      e8:	0fd13423          	sd	t4,232(sp)
      ec:	0fe13823          	sd	t5,240(sp)
      f0:	0ff13c23          	sd	t6,248(sp)
      f4:	00513823          	sd	t0,16(sp)
      f8:	00013023          	sd	zero,0(sp)
      fc:	000300e7          	jalr	t1

0000000000000100 <restore_mscratch>:
     100:	34011073          	csrw	mscratch,sp

0000000000000104 <restore_regs>:
     104:	00813083          	ld	ra,8(sp)
     108:	01813183          	ld	gp,24(sp)
     10c:	02013203          	ld	tp,32(sp)
     110:	02813283          	ld	t0,40(sp)
     114:	03013303          	ld	t1,48(sp)
     118:	03813383          	ld	t2,56(sp)
     11c:	04013403          	ld	s0,64(sp)
     120:	04813483          	ld	s1,72(sp)
     124:	05013503          	ld	a0,80(sp)
     128:	05813583          	ld	a1,88(sp)
     12c:	06013603          	ld	a2,96(sp)
     130:	06813683          	ld	a3,104(sp)
     134:	07013703          	ld	a4,112(sp)
     138:	07813783          	ld	a5,120(sp)
     13c:	08013803          	ld	a6,128(sp)
     140:	08813883          	ld	a7,136(sp)
     144:	09013903          	ld	s2,144(sp)
     148:	09813983          	ld	s3,152(sp)
     14c:	0a013a03          	ld	s4,160(sp)
     150:	0a813a83          	ld	s5,168(sp)
     154:	0b013b03          	ld	s6,176(sp)
     158:	0b813b83          	ld	s7,184(sp)
     15c:	0c013c03          	ld	s8,192(sp)
     160:	0c813c83          	ld	s9,200(sp)
     164:	0d013d03          	ld	s10,208(sp)
     168:	0d813d83          	ld	s11,216(sp)
     16c:	0e013e03          	ld	t3,224(sp)
     170:	0e813e83          	ld	t4,232(sp)
     174:	0f013f03          	ld	t5,240(sp)
     178:	0f813f83          	ld	t6,248(sp)
     17c:	01013103          	ld	sp,16(sp)
     180:	10200073          	eret
     184:	34002173          	csrr	sp,mscratch
     188:	f0010113          	addi	sp,sp,-256
     18c:	04a13823          	sd	a0,80(sp)
     190:	04b13c23          	sd	a1,88(sp)
     194:	00e00593          	li	a1,14
     198:	ed1ff06f          	j	68 <trap_vector+0x60>

000000000000019c <__redirect_trap>:
     19c:	000012b7          	lui	t0,0x1
     1a0:	00510133          	add	sp,sp,t0
     1a4:	405002b3          	neg	t0,t0
     1a8:	00517133          	and	sp,sp,t0
     1ac:	ec010113          	addi	sp,sp,-320
     1b0:	f51ff06f          	j	100 <restore_mscratch>

00000000000001b4 <__trap_from_machine_mode>:
     1b4:	445000ef          	jal	df8 <trap_from_machine_mode>
     1b8:	f4dff06f          	j	104 <restore_regs>

00000000000001bc <do_reset>:
     1bc:	00000093          	li	ra,0
     1c0:	00000113          	li	sp,0
     1c4:	00000193          	li	gp,0
     1c8:	00000213          	li	tp,0
     1cc:	00000293          	li	t0,0
     1d0:	00000313          	li	t1,0
     1d4:	00000393          	li	t2,0
     1d8:	00000413          	li	s0,0
     1dc:	00000493          	li	s1,0
     1e0:	00000513          	li	a0,0
     1e4:	00000593          	li	a1,0
     1e8:	00000613          	li	a2,0
     1ec:	00000693          	li	a3,0
     1f0:	00000713          	li	a4,0
     1f4:	00000793          	li	a5,0
     1f8:	00000813          	li	a6,0
     1fc:	00000893          	li	a7,0
     200:	00000913          	li	s2,0
     204:	00000993          	li	s3,0
     208:	00000a13          	li	s4,0
     20c:	00000a93          	li	s5,0
     210:	00000b13          	li	s6,0
     214:	00000b93          	li	s7,0
     218:	00000c13          	li	s8,0
     21c:	00000c93          	li	s9,0
     220:	00000d13          	li	s10,0
     224:	00000d93          	li	s11,0
     228:	00000e13          	li	t3,0
     22c:	00000e93          	li	t4,0
     230:	00000f13          	li	t5,0
     234:	00000f93          	li	t6,0
     238:	34001073          	csrw	mscratch,zero
     23c:	00844117          	auipc	sp,0x844
     240:	d3310113          	addi	sp,sp,-717 # 843f6f <_end+0x1fff>
     244:	fffff2b7          	lui	t0,0xfffff
     248:	00517133          	and	sp,sp,t0
     24c:	ec010113          	addi	sp,sp,-320
     250:	f1502573          	csrr	a0,mhartid
     254:	00c51593          	slli	a1,a0,0xc
     258:	00b10133          	add	sp,sp,a1
     25c:	00051463          	bnez	a0,264 <do_reset+0xa8>
     260:	5a90006f          	j	1008 <init_first_hart>
     264:	00800593          	li	a1,8
     268:	00b57463          	bleu	a1,a0,270 <do_reset+0xb4>
     26c:	6150006f          	j	1080 <init_other_hart>
     270:	10500073          	wfi
     274:	ff1ff06f          	j	264 <do_reset+0xa8>

0000000000000278 <boot_loader>:
     278:	fc010113          	addi	sp,sp,-64
     27c:	02813823          	sd	s0,48(sp)
     280:	00008517          	auipc	a0,0x8
     284:	d8050513          	addi	a0,a0,-640 # 8000 <_sbi_end>
     288:	00006417          	auipc	s0,0x6
     28c:	4d840413          	addi	s0,s0,1240 # 6760 <info>
     290:	00842597          	auipc	a1,0x842
     294:	ce058593          	addi	a1,a1,-800 # 841f70 <_end>
     298:	00040613          	mv	a2,s0
     29c:	40a585b3          	sub	a1,a1,a0
     2a0:	01413823          	sd	s4,16(sp)
     2a4:	02113c23          	sd	ra,56(sp)
     2a8:	02913423          	sd	s1,40(sp)
     2ac:	03213023          	sd	s2,32(sp)
     2b0:	01313c23          	sd	s3,24(sp)
     2b4:	01513423          	sd	s5,8(sp)
     2b8:	01613023          	sd	s6,0(sp)
     2bc:	22c000ef          	jal	4e8 <load_kernel_elf>
     2c0:	00006797          	auipc	a5,0x6
     2c4:	4e078793          	addi	a5,a5,1248 # 67a0 <first_free_paddr>
     2c8:	00843683          	ld	a3,8(s0)
     2cc:	0007b783          	ld	a5,0(a5)
     2d0:	00006a17          	auipc	s4,0x6
     2d4:	4b8a0a13          	addi	s4,s4,1208 # 6788 <mem_size>
     2d8:	000a3703          	ld	a4,0(s4)
     2dc:	00d787b3          	add	a5,a5,a3
     2e0:	40f007b3          	neg	a5,a5
     2e4:	000a0693          	mv	a3,s4
     2e8:	00f77463          	bleu	a5,a4,2f0 <boot_loader+0x78>
     2ec:	00070793          	mv	a5,a4
     2f0:	01843703          	ld	a4,24(s0)
     2f4:	01043903          	ld	s2,16(s0)
     2f8:	00001b37          	lui	s6,0x1
     2fc:	000b0613          	mv	a2,s6
     300:	00e90933          	add	s2,s2,a4
     304:	ffe00737          	lui	a4,0xffe00
     308:	00e7f7b3          	and	a5,a5,a4
     30c:	00000593          	li	a1,0
     310:	00090513          	mv	a0,s2
     314:	00f6b023          	sd	a5,0(a3)
     318:	101050ef          	jal	5c18 <memset>
     31c:	00843603          	ld	a2,8(s0)
     320:	016904b3          	add	s1,s2,s6
     324:	00000593          	li	a1,0
     328:	fff64613          	not	a2,a2
     32c:	01e65613          	srli	a2,a2,0x1e
     330:	00160a93          	addi	s5,a2,1
     334:	00ca9993          	slli	s3,s5,0xc
     338:	01698633          	add	a2,s3,s6
     33c:	00048513          	mv	a0,s1
     340:	0d9050ef          	jal	5c18 <memset>
     344:	20000693          	li	a3,512
     348:	415686b3          	sub	a3,a3,s5
     34c:	01348533          	add	a0,s1,s3
     350:	00c4d793          	srli	a5,s1,0xc
     354:	00369693          	slli	a3,a3,0x3
     358:	00d506b3          	add	a3,a0,a3
     35c:	00fa8633          	add	a2,s5,a5
     360:	00a79713          	slli	a4,a5,0xa
     364:	00176713          	ori	a4,a4,1
     368:	00e6b023          	sd	a4,0(a3)
     36c:	00178793          	addi	a5,a5,1
     370:	00868693          	addi	a3,a3,8
     374:	fec796e3          	bne	a5,a2,360 <boot_loader+0xe8>
     378:	00843783          	ld	a5,8(s0)
     37c:	01843803          	ld	a6,24(s0)
     380:	000a3703          	ld	a4,0(s4)
     384:	002008b7          	lui	a7,0x200
     388:	01078633          	add	a2,a5,a6
     38c:	00e66663          	bltu	a2,a4,398 <boot_loader+0x120>
     390:	0440006f          	j	3d4 <boot_loader+0x15c>
     394:	00843783          	ld	a5,8(s0)
     398:	410606b3          	sub	a3,a2,a6
     39c:	40f68733          	sub	a4,a3,a5
     3a0:	0157d593          	srli	a1,a5,0x15
     3a4:	1ff5f693          	andi	a3,a1,511
     3a8:	01575793          	srli	a5,a4,0x15
     3ac:	00d787b3          	add	a5,a5,a3
     3b0:	00c65713          	srli	a4,a2,0xc
     3b4:	00379793          	slli	a5,a5,0x3
     3b8:	00a71713          	slli	a4,a4,0xa
     3bc:	00f487b3          	add	a5,s1,a5
     3c0:	01f76713          	ori	a4,a4,31
     3c4:	00e7b023          	sd	a4,0(a5)
     3c8:	000a3783          	ld	a5,0(s4)
     3cc:	01160633          	add	a2,a2,a7
     3d0:	fcf662e3          	bltu	a2,a5,394 <boot_loader+0x11c>
     3d4:	00008617          	auipc	a2,0x8
     3d8:	c2b60613          	addi	a2,a2,-981 # 7fff <do_mcall+0x703>
     3dc:	00c65613          	srli	a2,a2,0xc
     3e0:	00160613          	addi	a2,a2,1
     3e4:	20000693          	li	a3,512
     3e8:	08c6e463          	bltu	a3,a2,470 <boot_loader+0x1f8>
     3ec:	40c686b3          	sub	a3,a3,a2
     3f0:	00369693          	slli	a3,a3,0x3
     3f4:	012686b3          	add	a3,a3,s2
     3f8:	00000793          	li	a5,0
     3fc:	00a79713          	slli	a4,a5,0xa
     400:	01d76713          	ori	a4,a4,29
     404:	00e6b023          	sd	a4,0(a3)
     408:	00178793          	addi	a5,a5,1
     40c:	00868693          	addi	a3,a3,8
     410:	fef616e3          	bne	a2,a5,3fc <boot_loader+0x184>
     414:	ff898993          	addi	s3,s3,-8
     418:	013484b3          	add	s1,s1,s3
     41c:	0004b783          	ld	a5,0(s1)
     420:	06079a63          	bnez	a5,494 <boot_loader+0x21c>
     424:	00c95913          	srli	s2,s2,0xc
     428:	00a91913          	slli	s2,s2,0xa
     42c:	00196913          	ori	s2,s2,1
     430:	0124b023          	sd	s2,0(s1)
     434:	0ff0000f          	fence
     438:	00006797          	auipc	a5,0x6
     43c:	36078793          	addi	a5,a5,864 # 6798 <root_page_table>
     440:	00a7b023          	sd	a0,0(a5)
     444:	00c55513          	srli	a0,a0,0xc
     448:	18051073          	csrw	sptbr,a0
     44c:	300000ef          	jal	74c <print_logo>
     450:	0ff0000f          	fence
     454:	00043503          	ld	a0,0(s0)
     458:	00100713          	li	a4,1
     45c:	00006797          	auipc	a5,0x6
     460:	32478793          	addi	a5,a5,804 # 6780 <elf_loaded>
     464:	00000593          	li	a1,0
     468:	00e7a023          	sw	a4,0(a5)
     46c:	44d000ef          	jal	10b8 <enter_supervisor_mode>
     470:	00006697          	auipc	a3,0x6
     474:	fd868693          	addi	a3,a3,-40 # 6448 <softfloat_countLeadingZeros8+0x158>
     478:	02b00613          	li	a2,43
     47c:	00006597          	auipc	a1,0x6
     480:	ffc58593          	addi	a1,a1,-4 # 6478 <softfloat_countLeadingZeros8+0x188>
     484:	00006517          	auipc	a0,0x6
     488:	00450513          	addi	a0,a0,4 # 6488 <softfloat_countLeadingZeros8+0x198>
     48c:	320000ef          	jal	7ac <printm>
     490:	314000ef          	jal	7a4 <poweroff>
     494:	00006697          	auipc	a3,0x6
     498:	01468693          	addi	a3,a3,20 # 64a8 <softfloat_countLeadingZeros8+0x1b8>
     49c:	03100613          	li	a2,49
     4a0:	00006597          	auipc	a1,0x6
     4a4:	fd858593          	addi	a1,a1,-40 # 6478 <softfloat_countLeadingZeros8+0x188>
     4a8:	00006517          	auipc	a0,0x6
     4ac:	fe050513          	addi	a0,a0,-32 # 6488 <softfloat_countLeadingZeros8+0x198>
     4b0:	2fc000ef          	jal	7ac <printm>
     4b4:	2f0000ef          	jal	7a4 <poweroff>

00000000000004b8 <boot_other_hart>:
     4b8:	00006717          	auipc	a4,0x6
     4bc:	2c870713          	addi	a4,a4,712 # 6780 <elf_loaded>
     4c0:	00072783          	lw	a5,0(a4)
     4c4:	fe078ee3          	beqz	a5,4c0 <boot_other_hart+0x8>
     4c8:	ff010113          	addi	sp,sp,-16
     4cc:	00113423          	sd	ra,8(sp)
     4d0:	0ff0000f          	fence
     4d4:	00006797          	auipc	a5,0x6
     4d8:	28c78793          	addi	a5,a5,652 # 6760 <info>
     4dc:	0007b503          	ld	a0,0(a5)
     4e0:	00000593          	li	a1,0
     4e4:	3d5000ef          	jal	10b8 <enter_supervisor_mode>

00000000000004e8 <load_kernel_elf>:
     4e8:	f8010113          	addi	sp,sp,-128
     4ec:	06113c23          	sd	ra,120(sp)
     4f0:	06813823          	sd	s0,112(sp)
     4f4:	06913423          	sd	s1,104(sp)
     4f8:	07213023          	sd	s2,96(sp)
     4fc:	05313c23          	sd	s3,88(sp)
     500:	05413823          	sd	s4,80(sp)
     504:	05513423          	sd	s5,72(sp)
     508:	05613023          	sd	s6,64(sp)
     50c:	03713c23          	sd	s7,56(sp)
     510:	03813823          	sd	s8,48(sp)
     514:	03913423          	sd	s9,40(sp)
     518:	03a13023          	sd	s10,32(sp)
     51c:	01b13c23          	sd	s11,24(sp)
     520:	03f00793          	li	a5,63
     524:	20b7f663          	bleu	a1,a5,730 <load_kernel_elf+0x248>
     528:	00052703          	lw	a4,0(a0)
     52c:	464c47b7          	lui	a5,0x464c4
     530:	57f7879b          	addiw	a5,a5,1407
     534:	00050d13          	mv	s10,a0
     538:	1ef71c63          	bne	a4,a5,730 <load_kernel_elf+0x248>
     53c:	00053703          	ld	a4,0(a0)
     540:	00060a13          	mv	s4,a2
     544:	fff00613          	li	a2,-1
     548:	01865793          	srli	a5,a2,0x18
     54c:	00f777b3          	and	a5,a4,a5
     550:	00006717          	auipc	a4,0x6
     554:	1f070713          	addi	a4,a4,496 # 6740 <_fdata+0x40>
     558:	00073703          	ld	a4,0(a4)
     55c:	1ce79a63          	bne	a5,a4,730 <load_kernel_elf+0x248>
     560:	03855483          	lhu	s1,56(a0)
     564:	02053403          	ld	s0,32(a0)
     568:	00058d93          	mv	s11,a1
     56c:	00649713          	slli	a4,s1,0x6
     570:	00870733          	add	a4,a4,s0
     574:	008507b3          	add	a5,a0,s0
     578:	1ae5ec63          	bltu	a1,a4,730 <load_kernel_elf+0x248>
     57c:	00006717          	auipc	a4,0x6
     580:	22470713          	addi	a4,a4,548 # 67a0 <first_free_paddr>
     584:	00073a83          	ld	s5,0(a4)
     588:	ffe006b7          	lui	a3,0xffe00
     58c:	00d13423          	sd	a3,8(sp)
     590:	00ca8ab3          	add	s5,s5,a2
     594:	015ada93          	srli	s5,s5,0x15
     598:	001a8a93          	addi	s5,s5,1
     59c:	015a9a93          	slli	s5,s5,0x15
     5a0:	01573023          	sd	s5,0(a4)
     5a4:	00048593          	mv	a1,s1
     5a8:	04048c63          	beqz	s1,600 <load_kernel_elf+0x118>
     5ac:	00078713          	mv	a4,a5
     5b0:	00000693          	li	a3,0
     5b4:	00060b13          	mv	s6,a2
     5b8:	00100513          	li	a0,1
     5bc:	0100006f          	j	5cc <load_kernel_elf+0xe4>
     5c0:	0016869b          	addiw	a3,a3,1
     5c4:	03870713          	addi	a4,a4,56
     5c8:	02b6d663          	ble	a1,a3,5f4 <load_kernel_elf+0x10c>
     5cc:	00072603          	lw	a2,0(a4)
     5d0:	fea618e3          	bne	a2,a0,5c0 <load_kernel_elf+0xd8>
     5d4:	02873603          	ld	a2,40(a4)
     5d8:	fe0604e3          	beqz	a2,5c0 <load_kernel_elf+0xd8>
     5dc:	01073603          	ld	a2,16(a4)
     5e0:	ff6670e3          	bleu	s6,a2,5c0 <load_kernel_elf+0xd8>
     5e4:	0016869b          	addiw	a3,a3,1
     5e8:	00060b13          	mv	s6,a2
     5ec:	03870713          	addi	a4,a4,56
     5f0:	fcb6cee3          	blt	a3,a1,5cc <load_kernel_elf+0xe4>
     5f4:	015b5b13          	srli	s6,s6,0x15
     5f8:	015b1713          	slli	a4,s6,0x15
     5fc:	00e13423          	sd	a4,8(sp)
     600:	00813703          	ld	a4,8(sp)
     604:	fff4849b          	addiw	s1,s1,-1
     608:	fff00913          	li	s2,-1
     60c:	40ea8ab3          	sub	s5,s5,a4
     610:	11248c63          	beq	s1,s2,728 <load_kernel_elf+0x240>
     614:	00048713          	mv	a4,s1
     618:	00371413          	slli	s0,a4,0x3
     61c:	00671713          	slli	a4,a4,0x6
     620:	40870433          	sub	s0,a4,s0
     624:	00001bb7          	lui	s7,0x1
     628:	00878433          	add	s0,a5,s0
     62c:	00000b13          	li	s6,0
     630:	00100993          	li	s3,1
     634:	fffb8b93          	addi	s7,s7,-1 # fff <hls_init+0x43>
     638:	0100006f          	j	648 <load_kernel_elf+0x160>
     63c:	fff4849b          	addiw	s1,s1,-1
     640:	fc840413          	addi	s0,s0,-56
     644:	07248e63          	beq	s1,s2,6c0 <load_kernel_elf+0x1d8>
     648:	00042783          	lw	a5,0(s0)
     64c:	ff3798e3          	bne	a5,s3,63c <load_kernel_elf+0x154>
     650:	02843783          	ld	a5,40(s0)
     654:	fe0784e3          	beqz	a5,63c <load_kernel_elf+0x154>
     658:	01043603          	ld	a2,16(s0)
     65c:	00ca8c33          	add	s8,s5,a2
     660:	018787b3          	add	a5,a5,s8
     664:	01767cb3          	and	s9,a2,s7
     668:	00fb7463          	bleu	a5,s6,670 <load_kernel_elf+0x188>
     66c:	00078b13          	mv	s6,a5
     670:	00843583          	ld	a1,8(s0)
     674:	02043603          	ld	a2,32(s0)
     678:	00c587b3          	add	a5,a1,a2
     67c:	0afdea63          	bltu	s11,a5,730 <load_kernel_elf+0x248>
     680:	00bd05b3          	add	a1,s10,a1
     684:	000c0513          	mv	a0,s8
     688:	538050ef          	jal	5bc0 <memcpy>
     68c:	000c8613          	mv	a2,s9
     690:	00000593          	li	a1,0
     694:	419c0533          	sub	a0,s8,s9
     698:	580050ef          	jal	5c18 <memset>
     69c:	02043703          	ld	a4,32(s0)
     6a0:	02843603          	ld	a2,40(s0)
     6a4:	00000593          	li	a1,0
     6a8:	00ec0533          	add	a0,s8,a4
     6ac:	40e60633          	sub	a2,a2,a4
     6b0:	fff4849b          	addiw	s1,s1,-1
     6b4:	564050ef          	jal	5c18 <memset>
     6b8:	fc840413          	addi	s0,s0,-56
     6bc:	f92496e3          	bne	s1,s2,648 <load_kernel_elf+0x160>
     6c0:	018d3703          	ld	a4,24(s10)
     6c4:	fffac793          	not	a5,s5
     6c8:	016787b3          	add	a5,a5,s6
     6cc:	00ea3023          	sd	a4,0(s4)
     6d0:	00c7d793          	srli	a5,a5,0xc
     6d4:	00813703          	ld	a4,8(sp)
     6d8:	07813083          	ld	ra,120(sp)
     6dc:	00178793          	addi	a5,a5,1 # 464c4001 <_end+0x45c82091>
     6e0:	00c79793          	slli	a5,a5,0xc
     6e4:	015a3c23          	sd	s5,24(s4)
     6e8:	00ea3423          	sd	a4,8(s4)
     6ec:	00fa3823          	sd	a5,16(s4)
     6f0:	07013403          	ld	s0,112(sp)
     6f4:	06813483          	ld	s1,104(sp)
     6f8:	06013903          	ld	s2,96(sp)
     6fc:	05813983          	ld	s3,88(sp)
     700:	05013a03          	ld	s4,80(sp)
     704:	04813a83          	ld	s5,72(sp)
     708:	04013b03          	ld	s6,64(sp)
     70c:	03813b83          	ld	s7,56(sp)
     710:	03013c03          	ld	s8,48(sp)
     714:	02813c83          	ld	s9,40(sp)
     718:	02013d03          	ld	s10,32(sp)
     71c:	01813d83          	ld	s11,24(sp)
     720:	08010113          	addi	sp,sp,128
     724:	00008067          	ret
     728:	00000b13          	li	s6,0
     72c:	f95ff06f          	j	6c0 <load_kernel_elf+0x1d8>
     730:	03500613          	li	a2,53
     734:	00006597          	auipc	a1,0x6
     738:	d8458593          	addi	a1,a1,-636 # 64b8 <softfloat_countLeadingZeros8+0x1c8>
     73c:	00006517          	auipc	a0,0x6
     740:	d9450513          	addi	a0,a0,-620 # 64d0 <softfloat_countLeadingZeros8+0x1e0>
     744:	068000ef          	jal	7ac <printm>
     748:	05c000ef          	jal	7a4 <poweroff>

000000000000074c <print_logo>:
     74c:	00005517          	auipc	a0,0x5
     750:	63450513          	addi	a0,a0,1588 # 5d80 <logo>
     754:	1e40006f          	j	938 <putstring>

0000000000000758 <send_ipi>:
     758:	00001737          	lui	a4,0x1
     75c:	00e10733          	add	a4,sp,a4
     760:	f15027f3          	csrr	a5,mhartid
     764:	40f50533          	sub	a0,a0,a5
     768:	fffff7b7          	lui	a5,0xfffff
     76c:	00f777b3          	and	a5,a4,a5
     770:	00c51513          	slli	a0,a0,0xc
     774:	00f50533          	add	a0,a0,a5
     778:	fc850713          	addi	a4,a0,-56
     77c:	46b727af          	amoor.w.sc	a5,a1,(a4)
     780:	00b7f5b3          	and	a1,a5,a1
     784:	00059e63          	bnez	a1,7a0 <send_ipi+0x48>
     788:	0ff0000f          	fence
     78c:	fc053783          	ld	a5,-64(a0)
     790:	00002737          	lui	a4,0x2
     794:	00e787b3          	add	a5,a5,a4
     798:	00100713          	li	a4,1
     79c:	a2e7b423          	sd	a4,-1496(a5) # ffffffffffffea28 <_end+0xffffffffff7bcab8>
     7a0:	00008067          	ret

00000000000007a4 <poweroff>:
     7a4:	7c00d073          	csrwi	mtohost,1
     7a8:	ffdff06f          	j	7a4 <poweroff>

00000000000007ac <printm>:
     7ac:	ea010113          	addi	sp,sp,-352
     7b0:	12810313          	addi	t1,sp,296
     7b4:	12b13423          	sd	a1,296(sp)
     7b8:	12c13823          	sd	a2,304(sp)
     7bc:	12d13c23          	sd	a3,312(sp)
     7c0:	00050613          	mv	a2,a0
     7c4:	00030693          	mv	a3,t1
     7c8:	10000593          	li	a1,256
     7cc:	01010513          	addi	a0,sp,16
     7d0:	10113c23          	sd	ra,280(sp)
     7d4:	14e13023          	sd	a4,320(sp)
     7d8:	14f13423          	sd	a5,328(sp)
     7dc:	15013823          	sd	a6,336(sp)
     7e0:	15113c23          	sd	a7,344(sp)
     7e4:	00613423          	sd	t1,8(sp)
     7e8:	0d8050ef          	jal	58c0 <vsnprintf>
     7ec:	01010513          	addi	a0,sp,16
     7f0:	148000ef          	jal	938 <putstring>
     7f4:	11813083          	ld	ra,280(sp)
     7f8:	16010113          	addi	sp,sp,352
     7fc:	00008067          	ret

0000000000000800 <bad_trap>:
     800:	ff010113          	addi	sp,sp,-16
     804:	00113423          	sd	ra,8(sp)
     808:	342026f3          	csrr	a3,mcause
     80c:	34102773          	csrr	a4,mepc
     810:	00c00613          	li	a2,12
     814:	00006597          	auipc	a1,0x6
     818:	cdc58593          	addi	a1,a1,-804 # 64f0 <softfloat_countLeadingZeros8+0x200>
     81c:	00006517          	auipc	a0,0x6
     820:	cec50513          	addi	a0,a0,-788 # 6508 <softfloat_countLeadingZeros8+0x218>
     824:	f89ff0ef          	jal	7ac <printm>
     828:	7c00d073          	csrwi	mtohost,1
     82c:	7c00d073          	csrwi	mtohost,1
     830:	ff9ff06f          	j	828 <bad_trap+0x28>

0000000000000834 <htif_interrupt>:
     834:	ff010113          	addi	sp,sp,-16
     838:	00113423          	sd	ra,8(sp)
     83c:	7c1057f3          	csrrw	a5,mfromhost,0
     840:	00100713          	li	a4,1
     844:	0387d693          	srli	a3,a5,0x38
     848:	00e69863          	bne	a3,a4,858 <htif_interrupt+0x24>
     84c:	00879713          	slli	a4,a5,0x8
     850:	03875713          	srli	a4,a4,0x38
     854:	02070463          	beqz	a4,87c <htif_interrupt+0x48>
     858:	01f00613          	li	a2,31
     85c:	00006597          	auipc	a1,0x6
     860:	c9458593          	addi	a1,a1,-876 # 64f0 <softfloat_countLeadingZeros8+0x200>
     864:	00006517          	auipc	a0,0x6
     868:	cd450513          	addi	a0,a0,-812 # 6538 <softfloat_countLeadingZeros8+0x248>
     86c:	f41ff0ef          	jal	7ac <printm>
     870:	7c00d073          	csrwi	mtohost,1
     874:	7c00d073          	csrwi	mtohost,1
     878:	ff9ff06f          	j	870 <htif_interrupt+0x3c>
     87c:	00001737          	lui	a4,0x1
     880:	00e106b3          	add	a3,sp,a4
     884:	0ff7f793          	andi	a5,a5,255
     888:	fffff737          	lui	a4,0xfffff
     88c:	00e6f733          	and	a4,a3,a4
     890:	0017879b          	addiw	a5,a5,1
     894:	fcf72823          	sw	a5,-48(a4) # ffffffffffffefd0 <_end+0xffffffffff7bd060>
     898:	344167f3          	csrrs	a5,mip,2
     89c:	00813083          	ld	ra,8(sp)
     8a0:	01010113          	addi	sp,sp,16
     8a4:	00008067          	ret

00000000000008a8 <do_tohost_fromhost>:
     8a8:	03059793          	slli	a5,a1,0x30
     8ac:	fe010113          	addi	sp,sp,-32
     8b0:	00c7e633          	or	a2,a5,a2
     8b4:	03851793          	slli	a5,a0,0x38
     8b8:	00813823          	sd	s0,16(sp)
     8bc:	00913423          	sd	s1,8(sp)
     8c0:	01213023          	sd	s2,0(sp)
     8c4:	00113c23          	sd	ra,24(sp)
     8c8:	00058913          	mv	s2,a1
     8cc:	00050493          	mv	s1,a0
     8d0:	00f66433          	or	s0,a2,a5
     8d4:	00c0006f          	j	8e0 <do_tohost_fromhost+0x38>
     8d8:	7c1027f3          	csrr	a5,mfromhost
     8dc:	04079a63          	bnez	a5,930 <do_tohost_fromhost+0x88>
     8e0:	7c0417f3          	csrrw	a5,mtohost,s0
     8e4:	fe079ae3          	bnez	a5,8d8 <do_tohost_fromhost+0x30>
     8e8:	7c1027f3          	csrr	a5,mfromhost
     8ec:	fe078ee3          	beqz	a5,8e8 <do_tohost_fromhost+0x40>
     8f0:	00879713          	slli	a4,a5,0x8
     8f4:	0387d793          	srli	a5,a5,0x38
     8f8:	03875713          	srli	a4,a4,0x38
     8fc:	00f49463          	bne	s1,a5,904 <do_tohost_fromhost+0x5c>
     900:	00e90a63          	beq	s2,a4,914 <do_tohost_fromhost+0x6c>
     904:	f31ff0ef          	jal	834 <htif_interrupt>
     908:	7c1027f3          	csrr	a5,mfromhost
     90c:	fc078ee3          	beqz	a5,8e8 <do_tohost_fromhost+0x40>
     910:	fe1ff06f          	j	8f0 <do_tohost_fromhost+0x48>
     914:	7c105073          	csrwi	mfromhost,0
     918:	01813083          	ld	ra,24(sp)
     91c:	01013403          	ld	s0,16(sp)
     920:	00813483          	ld	s1,8(sp)
     924:	00013903          	ld	s2,0(sp)
     928:	02010113          	addi	sp,sp,32
     92c:	00008067          	ret
     930:	f05ff0ef          	jal	834 <htif_interrupt>
     934:	fadff06f          	j	8e0 <do_tohost_fromhost+0x38>

0000000000000938 <putstring>:
     938:	00054603          	lbu	a2,0(a0)
     93c:	02060c63          	beqz	a2,974 <putstring+0x3c>
     940:	ff010113          	addi	sp,sp,-16
     944:	00813023          	sd	s0,0(sp)
     948:	00113423          	sd	ra,8(sp)
     94c:	00050413          	mv	s0,a0
     950:	00100593          	li	a1,1
     954:	00058513          	mv	a0,a1
     958:	00b40433          	add	s0,s0,a1
     95c:	f4dff0ef          	jal	8a8 <do_tohost_fromhost>
     960:	00044603          	lbu	a2,0(s0)
     964:	fe0616e3          	bnez	a2,950 <putstring+0x18>
     968:	00813083          	ld	ra,8(sp)
     96c:	00013403          	ld	s0,0(sp)
     970:	01010113          	addi	sp,sp,16
     974:	00008067          	ret

0000000000000978 <software_interrupt>:
     978:	344477f3          	csrrc	a5,mip,8
     97c:	0ff0000f          	fence
     980:	00001737          	lui	a4,0x1
     984:	00e10733          	add	a4,sp,a4
     988:	fffff7b7          	lui	a5,0xfffff
     98c:	00f77733          	and	a4,a4,a5
     990:	fc870693          	addi	a3,a4,-56 # fc8 <hls_init+0xc>
     994:	00000793          	li	a5,0
     998:	0cf6a7af          	amoswap.w.aq	a5,a5,(a3)
     99c:	0017f693          	andi	a3,a5,1
     9a0:	00068863          	beqz	a3,9b0 <software_interrupt+0x38>
     9a4:	00100693          	li	a3,1
     9a8:	fcd72623          	sw	a3,-52(a4)
     9ac:	34416773          	csrrs	a4,mip,2
     9b0:	0027f713          	andi	a4,a5,2
     9b4:	00070463          	beqz	a4,9bc <software_interrupt+0x44>
     9b8:	0000100f          	fence.i
     9bc:	0047f793          	andi	a5,a5,4
     9c0:	00078463          	beqz	a5,9c8 <software_interrupt+0x50>
     9c4:	10400073          	sfence.vm
     9c8:	00008067          	ret

00000000000009cc <send_ipi_many>:
     9cc:	fb010113          	addi	sp,sp,-80
     9d0:	02913c23          	sd	s1,56(sp)
     9d4:	03413023          	sd	s4,32(sp)
     9d8:	04113423          	sd	ra,72(sp)
     9dc:	04813023          	sd	s0,64(sp)
     9e0:	03213823          	sd	s2,48(sp)
     9e4:	03313423          	sd	s3,40(sp)
     9e8:	01513c23          	sd	s5,24(sp)
     9ec:	01613823          	sd	s6,16(sp)
     9f0:	01713423          	sd	s7,8(sp)
     9f4:	01813023          	sd	s8,0(sp)
     9f8:	00058493          	mv	s1,a1
     9fc:	fff00a13          	li	s4,-1
     a00:	00050463          	beqz	a0,a08 <send_ipi_many+0x3c>
     a04:	00053a03          	ld	s4,0(a0)
     a08:	00006a97          	auipc	s5,0x6
     a0c:	d88a8a93          	addi	s5,s5,-632 # 6790 <num_harts>
     a10:	000ab403          	ld	s0,0(s5)
     a14:	fff00993          	li	s3,-1
     a18:	01340433          	add	s0,s0,s3
     a1c:	0004091b          	sext.w	s2,s0
     a20:	00045a63          	bgez	s0,a34 <send_ipi_many+0x68>
     a24:	0b40006f          	j	ad8 <send_ipi_many+0x10c>
     a28:	fff40413          	addi	s0,s0,-1
     a2c:	fff9091b          	addiw	s2,s2,-1
     a30:	03340463          	beq	s0,s3,a58 <send_ipi_many+0x8c>
     a34:	012a57b3          	srl	a5,s4,s2
     a38:	0017f793          	andi	a5,a5,1
     a3c:	fe0786e3          	beqz	a5,a28 <send_ipi_many+0x5c>
     a40:	00040513          	mv	a0,s0
     a44:	00048593          	mv	a1,s1
     a48:	fff40413          	addi	s0,s0,-1
     a4c:	d0dff0ef          	jal	758 <send_ipi>
     a50:	fff9091b          	addiw	s2,s2,-1
     a54:	ff3410e3          	bne	s0,s3,a34 <send_ipi_many+0x68>
     a58:	000ab903          	ld	s2,0(s5)
     a5c:	fff90913          	addi	s2,s2,-1
     a60:	06094c63          	bltz	s2,ad8 <send_ipi_many+0x10c>
     a64:	00001ab7          	lui	s5,0x1
     a68:	015107b3          	add	a5,sp,s5
     a6c:	fffffab7          	lui	s5,0xfffff
     a70:	f1502bf3          	csrr	s7,mhartid
     a74:	0009099b          	sext.w	s3,s2
     a78:	0157fab3          	and	s5,a5,s5
     a7c:	000b8c13          	mv	s8,s7
     a80:	fff00b13          	li	s6,-1
     a84:	013a57b3          	srl	a5,s4,s3
     a88:	0017f793          	andi	a5,a5,1
     a8c:	04078063          	beqz	a5,acc <send_ipi_many+0x100>
     a90:	417907b3          	sub	a5,s2,s7
     a94:	00c79793          	slli	a5,a5,0xc
     a98:	fc078793          	addi	a5,a5,-64 # ffffffffffffefc0 <_end+0xffffffffff7bd050>
     a9c:	00fa87b3          	add	a5,s5,a5
     aa0:	0087a783          	lw	a5,8(a5)
     aa4:	00f4f7b3          	and	a5,s1,a5
     aa8:	02078263          	beqz	a5,acc <send_ipi_many+0x100>
     aac:	41890433          	sub	s0,s2,s8
     ab0:	00c41413          	slli	s0,s0,0xc
     ab4:	fc040413          	addi	s0,s0,-64
     ab8:	008a8433          	add	s0,s5,s0
     abc:	ebdff0ef          	jal	978 <software_interrupt>
     ac0:	00842783          	lw	a5,8(s0)
     ac4:	00f4f7b3          	and	a5,s1,a5
     ac8:	fe079ae3          	bnez	a5,abc <send_ipi_many+0xf0>
     acc:	fff90913          	addi	s2,s2,-1
     ad0:	fff9899b          	addiw	s3,s3,-1
     ad4:	fb6918e3          	bne	s2,s6,a84 <send_ipi_many+0xb8>
     ad8:	04813083          	ld	ra,72(sp)
     adc:	04013403          	ld	s0,64(sp)
     ae0:	03813483          	ld	s1,56(sp)
     ae4:	03013903          	ld	s2,48(sp)
     ae8:	02813983          	ld	s3,40(sp)
     aec:	02013a03          	ld	s4,32(sp)
     af0:	01813a83          	ld	s5,24(sp)
     af4:	01013b03          	ld	s6,16(sp)
     af8:	00813b83          	ld	s7,8(sp)
     afc:	00013c03          	ld	s8,0(sp)
     b00:	05010113          	addi	sp,sp,80
     b04:	00008067          	ret

0000000000000b08 <mcall_trap>:
     b08:	08853783          	ld	a5,136(a0)
     b0c:	fe010113          	addi	sp,sp,-32
     b10:	00813823          	sd	s0,16(sp)
     b14:	00913423          	sd	s1,8(sp)
     b18:	00113c23          	sd	ra,24(sp)
     b1c:	00900713          	li	a4,9
     b20:	00050493          	mv	s1,a0
     b24:	00060413          	mv	s0,a2
     b28:	05053503          	ld	a0,80(a0)
     b2c:	24f76263          	bltu	a4,a5,d70 <mcall_trap+0x268>
     b30:	00005717          	auipc	a4,0x5
     b34:	65870713          	addi	a4,a4,1624 # 6188 <logo+0x408>
     b38:	00279793          	slli	a5,a5,0x2
     b3c:	00e787b3          	add	a5,a5,a4
     b40:	0007a783          	lw	a5,0(a5)
     b44:	00e787b3          	add	a5,a5,a4
     b48:	00078067          	jr	a5
     b4c:	7c00d073          	csrwi	mtohost,1
     b50:	7c00d073          	csrwi	mtohost,1
     b54:	ff9ff06f          	j	b4c <mcall_trap+0x44>
     b58:	00400593          	li	a1,4
     b5c:	e71ff0ef          	jal	9cc <send_ipi_many>
     b60:	00000793          	li	a5,0
     b64:	04f4b823          	sd	a5,80(s1)
     b68:	00440413          	addi	s0,s0,4
     b6c:	34141073          	csrw	mepc,s0
     b70:	01813083          	ld	ra,24(sp)
     b74:	01013403          	ld	s0,16(sp)
     b78:	00813483          	ld	s1,8(sp)
     b7c:	02010113          	addi	sp,sp,32
     b80:	00008067          	ret
     b84:	00200593          	li	a1,2
     b88:	e45ff0ef          	jal	9cc <send_ipi_many>
     b8c:	00000793          	li	a5,0
     b90:	04f4b823          	sd	a5,80(s1)
     b94:	00440413          	addi	s0,s0,4
     b98:	34141073          	csrw	mepc,s0
     b9c:	01813083          	ld	ra,24(sp)
     ba0:	01013403          	ld	s0,16(sp)
     ba4:	00813483          	ld	s1,8(sp)
     ba8:	02010113          	addi	sp,sp,32
     bac:	00008067          	ret
     bb0:	f15027f3          	csrr	a5,mhartid
     bb4:	00440413          	addi	s0,s0,4
     bb8:	04f4b823          	sd	a5,80(s1)
     bbc:	34141073          	csrw	mepc,s0
     bc0:	01813083          	ld	ra,24(sp)
     bc4:	01013403          	ld	s0,16(sp)
     bc8:	00813483          	ld	s1,8(sp)
     bcc:	02010113          	addi	sp,sp,32
     bd0:	00008067          	ret
     bd4:	00100593          	li	a1,1
     bd8:	0ff57613          	andi	a2,a0,255
     bdc:	00058513          	mv	a0,a1
     be0:	cc9ff0ef          	jal	8a8 <do_tohost_fromhost>
     be4:	00000793          	li	a5,0
     be8:	04f4b823          	sd	a5,80(s1)
     bec:	00440413          	addi	s0,s0,4
     bf0:	34141073          	csrw	mepc,s0
     bf4:	01813083          	ld	ra,24(sp)
     bf8:	01013403          	ld	s0,16(sp)
     bfc:	00813483          	ld	s1,8(sp)
     c00:	02010113          	addi	sp,sp,32
     c04:	00008067          	ret
     c08:	00001737          	lui	a4,0x1
     c0c:	00e10733          	add	a4,sp,a4
     c10:	fffff7b7          	lui	a5,0xfffff
     c14:	00f77733          	and	a4,a4,a5
     c18:	fd070713          	addi	a4,a4,-48 # fd0 <hls_init+0x14>
     c1c:	fff00793          	li	a5,-1
     c20:	0cf727af          	amoswap.w.aq	a5,a5,(a4)
     c24:	0007ca63          	bltz	a5,c38 <mcall_trap+0x130>
     c28:	00100713          	li	a4,1
     c2c:	03871713          	slli	a4,a4,0x38
     c30:	7c071773          	csrrw	a4,mtohost,a4
     c34:	14071263          	bnez	a4,d78 <mcall_trap+0x270>
     c38:	34417773          	csrrc	a4,mip,2
     c3c:	0ff0000f          	fence
     c40:	00001737          	lui	a4,0x1
     c44:	00e106b3          	add	a3,sp,a4
     c48:	fffff737          	lui	a4,0xfffff
     c4c:	00e6f733          	and	a4,a3,a4
     c50:	fcc72683          	lw	a3,-52(a4) # ffffffffffffefcc <_end+0xffffffffff7bd05c>
     c54:	00069663          	bnez	a3,c60 <mcall_trap+0x158>
     c58:	fd072703          	lw	a4,-48(a4)
     c5c:	00e05463          	blez	a4,c64 <mcall_trap+0x15c>
     c60:	34416773          	csrrs	a4,mip,2
     c64:	fff7879b          	addiw	a5,a5,-1
     c68:	04f4b823          	sd	a5,80(s1)
     c6c:	00440413          	addi	s0,s0,4
     c70:	34141073          	csrw	mepc,s0
     c74:	01813083          	ld	ra,24(sp)
     c78:	01013403          	ld	s0,16(sp)
     c7c:	00813483          	ld	s1,8(sp)
     c80:	02010113          	addi	sp,sp,32
     c84:	00008067          	ret
     c88:	00050613          	mv	a2,a0
     c8c:	00000593          	li	a1,0
     c90:	00000513          	li	a0,0
     c94:	c15ff0ef          	jal	8a8 <do_tohost_fromhost>
     c98:	00000793          	li	a5,0
     c9c:	04f4b823          	sd	a5,80(s1)
     ca0:	00440413          	addi	s0,s0,4
     ca4:	34141073          	csrw	mepc,s0
     ca8:	01813083          	ld	ra,24(sp)
     cac:	01013403          	ld	s0,16(sp)
     cb0:	00813483          	ld	s1,8(sp)
     cb4:	02010113          	addi	sp,sp,32
     cb8:	00008067          	ret
     cbc:	00006797          	auipc	a5,0x6
     cc0:	ad478793          	addi	a5,a5,-1324 # 6790 <num_harts>
     cc4:	0007b703          	ld	a4,0(a5)
     cc8:	fff00793          	li	a5,-1
     ccc:	e8e57ce3          	bleu	a4,a0,b64 <mcall_trap+0x5c>
     cd0:	00100593          	li	a1,1
     cd4:	a85ff0ef          	jal	758 <send_ipi>
     cd8:	00000793          	li	a5,0
     cdc:	e89ff06f          	j	b64 <mcall_trap+0x5c>
     ce0:	00001737          	lui	a4,0x1
     ce4:	00e10733          	add	a4,sp,a4
     ce8:	fffff7b7          	lui	a5,0xfffff
     cec:	00f77733          	and	a4,a4,a5
     cf0:	fcc70693          	addi	a3,a4,-52 # fcc <hls_init+0x10>
     cf4:	00000793          	li	a5,0
     cf8:	0cf6a7af          	amoswap.w.aq	a5,a5,(a3)
     cfc:	344176f3          	csrrc	a3,mip,2
     d00:	0ff0000f          	fence
     d04:	fcc72683          	lw	a3,-52(a4)
     d08:	00069663          	bnez	a3,d14 <mcall_trap+0x20c>
     d0c:	fd072703          	lw	a4,-48(a4)
     d10:	e4e05ae3          	blez	a4,b64 <mcall_trap+0x5c>
     d14:	34416773          	csrrs	a4,mip,2
     d18:	04f4b823          	sd	a5,80(s1)
     d1c:	00440413          	addi	s0,s0,4
     d20:	34141073          	csrw	mepc,s0
     d24:	01813083          	ld	ra,24(sp)
     d28:	01013403          	ld	s0,16(sp)
     d2c:	00813483          	ld	s1,8(sp)
     d30:	02010113          	addi	sp,sp,32
     d34:	00008067          	ret
     d38:	32151073          	csrw	mtimecmp,a0
     d3c:	02000793          	li	a5,32
     d40:	3447b7f3          	csrrc	a5,mip,a5
     d44:	08000793          	li	a5,128
     d48:	3047a7f3          	csrrs	a5,mie,a5
     d4c:	00000793          	li	a5,0
     d50:	04f4b823          	sd	a5,80(s1)
     d54:	00440413          	addi	s0,s0,4
     d58:	34141073          	csrw	mepc,s0
     d5c:	01813083          	ld	ra,24(sp)
     d60:	01013403          	ld	s0,16(sp)
     d64:	00813483          	ld	s1,8(sp)
     d68:	02010113          	addi	sp,sp,32
     d6c:	00008067          	ret
     d70:	fa800793          	li	a5,-88
     d74:	df1ff06f          	j	b64 <mcall_trap+0x5c>
     d78:	00005697          	auipc	a3,0x5
     d7c:	7e868693          	addi	a3,a3,2024 # 6560 <softfloat_countLeadingZeros8+0x270>
     d80:	01700613          	li	a2,23
     d84:	00005597          	auipc	a1,0x5
     d88:	76c58593          	addi	a1,a1,1900 # 64f0 <softfloat_countLeadingZeros8+0x200>
     d8c:	00005517          	auipc	a0,0x5
     d90:	6fc50513          	addi	a0,a0,1788 # 6488 <softfloat_countLeadingZeros8+0x198>
     d94:	a19ff0ef          	jal	7ac <printm>
     d98:	7c00d073          	csrwi	mtohost,1
     d9c:	7c00d073          	csrwi	mtohost,1
     da0:	ff9ff06f          	j	d98 <mcall_trap+0x290>

0000000000000da4 <redirect_trap>:
     da4:	14151073          	csrw	sepc,a0
     da8:	342027f3          	csrr	a5,mcause
     dac:	14279073          	csrw	scause,a5
     db0:	105027f3          	csrr	a5,stvec
     db4:	34179073          	csrw	mepc,a5
     db8:	0035d713          	srli	a4,a1,0x3
     dbc:	0805f793          	andi	a5,a1,128
     dc0:	30077713          	andi	a4,a4,768
     dc4:	edf5f593          	andi	a1,a1,-289
     dc8:	0077d793          	srli	a5,a5,0x7
     dcc:	00e5e5b3          	or	a1,a1,a4
     dd0:	00579793          	slli	a5,a5,0x5
     dd4:	00f5e5b3          	or	a1,a1,a5
     dd8:	ffffe7b7          	lui	a5,0xffffe
     ddc:	77f78793          	addi	a5,a5,1919 # ffffffffffffe77f <_end+0xffffffffff7bc80f>
     de0:	00f5f5b3          	and	a1,a1,a5
     de4:	000017b7          	lui	a5,0x1
     de8:	80078793          	addi	a5,a5,-2048 # 800 <bad_trap>
     dec:	00f5e5b3          	or	a1,a1,a5
     df0:	30059073          	csrw	mstatus,a1
     df4:	ba8ff06f          	j	19c <__redirect_trap>

0000000000000df8 <trap_from_machine_mode>:
     df8:	ff010113          	addi	sp,sp,-16
     dfc:	00113423          	sd	ra,8(sp)
     e00:	342027f3          	csrr	a5,mcause
     e04:	00500713          	li	a4,5
     e08:	00e78663          	beq	a5,a4,e14 <trap_from_machine_mode+0x1c>
     e0c:	00700713          	li	a4,7
     e10:	02e79663          	bne	a5,a4,e3c <trap_from_machine_mode+0x44>
     e14:	300027f3          	csrr	a5,mstatus
     e18:	02e79713          	slli	a4,a5,0x2e
     e1c:	02075063          	bgez	a4,e3c <trap_from_machine_mode+0x44>
     e20:	343027f3          	csrr	a5,mbadaddr
     e24:	14379073          	csrw	sbadaddr,a5
     e28:	06853583          	ld	a1,104(a0)
     e2c:	00813083          	ld	ra,8(sp)
     e30:	06053503          	ld	a0,96(a0)
     e34:	01010113          	addi	sp,sp,16
     e38:	f6dff06f          	j	da4 <redirect_trap>
     e3c:	9c5ff0ef          	jal	800 <bad_trap>

0000000000000e40 <mstatus_init>:
     e40:	090027b7          	lui	a5,0x9002
     e44:	30079073          	csrw	mstatus,a5
     e48:	30002773          	csrr	a4,mstatus
     e4c:	1f0007b7          	lui	a5,0x1f000
     e50:	00f777b3          	and	a5,a4,a5
     e54:	f7000737          	lui	a4,0xf7000
     e58:	00e787b3          	add	a5,a5,a4
     e5c:	01000737          	lui	a4,0x1000
     e60:	00e7fe63          	bleu	a4,a5,e7c <mstatus_init+0x3c>
     e64:	fff00793          	li	a5,-1
     e68:	31079073          	csrw	mucounteren,a5
     e6c:	31179073          	csrw	mscounteren,a5
     e70:	f7f00793          	li	a5,-129
     e74:	30479073          	csrw	mie,a5
     e78:	00008067          	ret
     e7c:	ff010113          	addi	sp,sp,-16
     e80:	00005697          	auipc	a3,0x5
     e84:	6f068693          	addi	a3,a3,1776 # 6570 <softfloat_countLeadingZeros8+0x280>
     e88:	01600613          	li	a2,22
     e8c:	00005597          	auipc	a1,0x5
     e90:	71458593          	addi	a1,a1,1812 # 65a0 <softfloat_countLeadingZeros8+0x2b0>
     e94:	00005517          	auipc	a0,0x5
     e98:	5f450513          	addi	a0,a0,1524 # 6488 <softfloat_countLeadingZeros8+0x198>
     e9c:	00113423          	sd	ra,8(sp)
     ea0:	90dff0ef          	jal	7ac <printm>
     ea4:	901ff0ef          	jal	7a4 <poweroff>

0000000000000ea8 <fp_init>:
     ea8:	ff010113          	addi	sp,sp,-16
     eac:	00113423          	sd	ra,8(sp)
     eb0:	30002773          	csrr	a4,mstatus
     eb4:	000067b7          	lui	a5,0x6
     eb8:	00f777b3          	and	a5,a4,a5
     ebc:	04078263          	beqz	a5,f00 <fp_init+0x58>
     ec0:	f1002773          	csrr	a4,misa
     ec4:	00877713          	andi	a4,a4,8
     ec8:	00000793          	li	a5,0
     ecc:	02000693          	li	a3,32
     ed0:	04070a63          	beqz	a4,f24 <fp_init+0x7c>
     ed4:	00000513          	li	a0,0
     ed8:	0037971b          	slliw	a4,a5,0x3
     edc:	00001617          	auipc	a2,0x1
     ee0:	00e60633          	add	a2,a2,a4
     ee4:	a4c602e7          	jalr	t0,a2,-1460 # 1928 <put_f32_reg>
     ee8:	0017879b          	addiw	a5,a5,1
     eec:	fed794e3          	bne	a5,a3,ed4 <fp_init+0x2c>
     ef0:	00305073          	csrwi	fcsr,0
     ef4:	00813083          	ld	ra,8(sp)
     ef8:	01010113          	addi	sp,sp,16
     efc:	00008067          	ret
     f00:	00005697          	auipc	a3,0x5
     f04:	6b868693          	addi	a3,a3,1720 # 65b8 <softfloat_countLeadingZeros8+0x2c8>
     f08:	03300613          	li	a2,51
     f0c:	00005597          	auipc	a1,0x5
     f10:	69458593          	addi	a1,a1,1684 # 65a0 <softfloat_countLeadingZeros8+0x2b0>
     f14:	00005517          	auipc	a0,0x5
     f18:	57450513          	addi	a0,a0,1396 # 6488 <softfloat_countLeadingZeros8+0x198>
     f1c:	891ff0ef          	jal	7ac <printm>
     f20:	885ff0ef          	jal	7a4 <poweroff>
     f24:	03700613          	li	a2,55
     f28:	00005597          	auipc	a1,0x5
     f2c:	67858593          	addi	a1,a1,1656 # 65a0 <softfloat_countLeadingZeros8+0x2b0>
     f30:	00005517          	auipc	a0,0x5
     f34:	6a850513          	addi	a0,a0,1704 # 65d8 <softfloat_countLeadingZeros8+0x2e8>
     f38:	875ff0ef          	jal	7ac <printm>
     f3c:	869ff0ef          	jal	7a4 <poweroff>

0000000000000f40 <delegate_traps>:
     f40:	ff010113          	addi	sp,sp,-16
     f44:	00113423          	sd	ra,8(sp)
     f48:	02200793          	li	a5,34
     f4c:	30379073          	csrw	mideleg,a5
     f50:	1ab00713          	li	a4,427
     f54:	30271073          	csrw	medeleg,a4
     f58:	303026f3          	csrr	a3,mideleg
     f5c:	00f69c63          	bne	a3,a5,f74 <delegate_traps+0x34>
     f60:	302027f3          	csrr	a5,medeleg
     f64:	02e79a63          	bne	a5,a4,f98 <delegate_traps+0x58>
     f68:	00813083          	ld	ra,8(sp)
     f6c:	01010113          	addi	sp,sp,16
     f70:	00008067          	ret
     f74:	00005697          	auipc	a3,0x5
     f78:	69c68693          	addi	a3,a3,1692 # 6610 <softfloat_countLeadingZeros8+0x320>
     f7c:	02d00613          	li	a2,45
     f80:	00005597          	auipc	a1,0x5
     f84:	62058593          	addi	a1,a1,1568 # 65a0 <softfloat_countLeadingZeros8+0x2b0>
     f88:	00005517          	auipc	a0,0x5
     f8c:	50050513          	addi	a0,a0,1280 # 6488 <softfloat_countLeadingZeros8+0x198>
     f90:	81dff0ef          	jal	7ac <printm>
     f94:	811ff0ef          	jal	7a4 <poweroff>
     f98:	00005697          	auipc	a3,0x5
     f9c:	69868693          	addi	a3,a3,1688 # 6630 <softfloat_countLeadingZeros8+0x340>
     fa0:	02e00613          	li	a2,46
     fa4:	00005597          	auipc	a1,0x5
     fa8:	5fc58593          	addi	a1,a1,1532 # 65a0 <softfloat_countLeadingZeros8+0x2b0>
     fac:	00005517          	auipc	a0,0x5
     fb0:	4dc50513          	addi	a0,a0,1244 # 6488 <softfloat_countLeadingZeros8+0x198>
     fb4:	ff8ff0ef          	jal	7ac <printm>
     fb8:	fecff0ef          	jal	7a4 <poweroff>

0000000000000fbc <hls_init>:
     fbc:	f15027f3          	csrr	a5,mhartid
     fc0:	40f50533          	sub	a0,a0,a5
     fc4:	000017b7          	lui	a5,0x1
     fc8:	00f10733          	add	a4,sp,a5
     fcc:	00c51513          	slli	a0,a0,0xc
     fd0:	fffff7b7          	lui	a5,0xfffff
     fd4:	00f777b3          	and	a5,a4,a5
     fd8:	fc050513          	addi	a0,a0,-64
     fdc:	00a78533          	add	a0,a5,a0
     fe0:	00053423          	sd	zero,8(a0)
     fe4:	00053823          	sd	zero,16(a0)
     fe8:	00053c23          	sd	zero,24(a0)
     fec:	02053023          	sd	zero,32(a0)
     ff0:	02053423          	sd	zero,40(a0)
     ff4:	02053823          	sd	zero,48(a0)
     ff8:	02053c23          	sd	zero,56(a0)
     ffc:	04053023          	sd	zero,64(a0)
    1000:	00b53023          	sd	a1,0(a0)
    1004:	00008067          	ret

0000000000001008 <init_first_hart>:
    1008:	ff010113          	addi	sp,sp,-16
    100c:	00113423          	sd	ra,8(sp)
    1010:	e31ff0ef          	jal	e40 <mstatus_init>
    1014:	e95ff0ef          	jal	ea8 <fp_init>
    1018:	f29ff0ef          	jal	f40 <delegate_traps>
    101c:	00000593          	li	a1,0
    1020:	00000513          	li	a0,0
    1024:	f99ff0ef          	jal	fbc <hls_init>
    1028:	648000ef          	jal	1670 <parse_config_string>
    102c:	00005617          	auipc	a2,0x5
    1030:	75c60613          	addi	a2,a2,1884 # 6788 <mem_size>
    1034:	00063683          	ld	a3,0(a2)
    1038:	00005797          	auipc	a5,0x5
    103c:	75878793          	addi	a5,a5,1880 # 6790 <num_harts>
    1040:	0007b703          	ld	a4,0(a5)
    1044:	00841797          	auipc	a5,0x841
    1048:	f2b78793          	addi	a5,a5,-213 # 841f6f <_sbi_end+0x839f6f>
    104c:	00c7d793          	srli	a5,a5,0xc
    1050:	00178793          	addi	a5,a5,1
    1054:	0156d693          	srli	a3,a3,0x15
    1058:	00813083          	ld	ra,8(sp)
    105c:	00f707b3          	add	a5,a4,a5
    1060:	01569713          	slli	a4,a3,0x15
    1064:	00c79793          	slli	a5,a5,0xc
    1068:	00e63023          	sd	a4,0(a2)
    106c:	01010113          	addi	sp,sp,16
    1070:	00005717          	auipc	a4,0x5
    1074:	73070713          	addi	a4,a4,1840 # 67a0 <first_free_paddr>
    1078:	00f73023          	sd	a5,0(a4)
    107c:	9fcff06f          	j	278 <boot_loader>

0000000000001080 <init_other_hart>:
    1080:	ff010113          	addi	sp,sp,-16
    1084:	00113423          	sd	ra,8(sp)
    1088:	db9ff0ef          	jal	e40 <mstatus_init>
    108c:	e1dff0ef          	jal	ea8 <fp_init>
    1090:	eb1ff0ef          	jal	f40 <delegate_traps>
    1094:	00001737          	lui	a4,0x1
    1098:	00e10733          	add	a4,sp,a4
    109c:	fffff7b7          	lui	a5,0xfffff
    10a0:	00f77733          	and	a4,a4,a5
    10a4:	fc073783          	ld	a5,-64(a4) # fc0 <hls_init+0x4>
    10a8:	fe078ee3          	beqz	a5,10a4 <init_other_hart+0x24>
    10ac:	00813083          	ld	ra,8(sp)
    10b0:	01010113          	addi	sp,sp,16
    10b4:	c04ff06f          	j	4b8 <boot_other_hart>

00000000000010b8 <enter_supervisor_mode>:
    10b8:	30002773          	csrr	a4,mstatus
    10bc:	ffffe6b7          	lui	a3,0xffffe
    10c0:	000017b7          	lui	a5,0x1
    10c4:	77f68693          	addi	a3,a3,1919 # ffffffffffffe77f <_end+0xffffffffff7bc80f>
    10c8:	00d77733          	and	a4,a4,a3
    10cc:	80078693          	addi	a3,a5,-2048 # 800 <bad_trap>
    10d0:	00d76733          	or	a4,a4,a3
    10d4:	30071073          	csrw	mstatus,a4
    10d8:	fffff737          	lui	a4,0xfffff
    10dc:	00f107b3          	add	a5,sp,a5
    10e0:	00e7f7b3          	and	a5,a5,a4
    10e4:	ec078793          	addi	a5,a5,-320
    10e8:	34079073          	csrw	mscratch,a5
    10ec:	34151073          	csrw	mepc,a0
    10f0:	00005797          	auipc	a5,0x5
    10f4:	6a878793          	addi	a5,a5,1704 # 6798 <root_page_table>
    10f8:	0007b783          	ld	a5,0(a5)
    10fc:	00c7d793          	srli	a5,a5,0xc
    1100:	18079073          	csrw	sptbr,a5
    1104:	00058513          	mv	a0,a1
    1108:	00058113          	mv	sp,a1
    110c:	10200073          	eret

0000000000001110 <query_config_string>:
    1110:	f7010113          	addi	sp,sp,-144
    1114:	07213823          	sd	s2,112(sp)
    1118:	08113423          	sd	ra,136(sp)
    111c:	08813023          	sd	s0,128(sp)
    1120:	06913c23          	sd	s1,120(sp)
    1124:	07313423          	sd	s3,104(sp)
    1128:	07413023          	sd	s4,96(sp)
    112c:	05513c23          	sd	s5,88(sp)
    1130:	05613823          	sd	s6,80(sp)
    1134:	05713423          	sd	s7,72(sp)
    1138:	05813023          	sd	s8,64(sp)
    113c:	03913c23          	sd	s9,56(sp)
    1140:	03a13823          	sd	s10,48(sp)
    1144:	03b13423          	sd	s11,40(sp)
    1148:	0005cc03          	lbu	s8,0(a1)
    114c:	00058913          	mv	s2,a1
    1150:	280c0863          	beqz	s8,13e0 <query_config_string+0x2d0>
    1154:	07b00713          	li	a4,123
    1158:	28ec0463          	beq	s8,a4,13e0 <query_config_string+0x2d0>
    115c:	00158793          	addi	a5,a1,1
    1160:	00000c93          	li	s9,0
    1164:	0080006f          	j	116c <query_config_string+0x5c>
    1168:	00ec0a63          	beq	s8,a4,117c <query_config_string+0x6c>
    116c:	0007cc03          	lbu	s8,0(a5)
    1170:	001c8c93          	addi	s9,s9,1
    1174:	00178793          	addi	a5,a5,1
    1178:	fe0c18e3          	bnez	s8,1168 <query_config_string+0x58>
    117c:	001c8493          	addi	s1,s9,1
    1180:	00000993          	li	s3,0
    1184:	01f00413          	li	s0,31
    1188:	05700a93          	li	s5,87
    118c:	03b00a13          	li	s4,59
    1190:	02200b93          	li	s7,34
    1194:	07b00d13          	li	s10,123
    1198:	009904b3          	add	s1,s2,s1
    119c:	0080006f          	j	11a4 <query_config_string+0x94>
    11a0:	00150513          	addi	a0,a0,1
    11a4:	00054683          	lbu	a3,0(a0)
    11a8:	fff6879b          	addiw	a5,a3,-1
    11ac:	0ff7f793          	andi	a5,a5,255
    11b0:	fef478e3          	bleu	a5,s0,11a0 <query_config_string+0x90>
    11b4:	fdd6879b          	addiw	a5,a3,-35
    11b8:	0ff7f793          	andi	a5,a5,255
    11bc:	00050b13          	mv	s6,a0
    11c0:	22fae463          	bltu	s5,a5,13e8 <query_config_string+0x2d8>
    11c4:	01469663          	bne	a3,s4,11d0 <query_config_string+0xc0>
    11c8:	2100006f          	j	13d8 <query_config_string+0x2c8>
    11cc:	15468c63          	beq	a3,s4,1324 <query_config_string+0x214>
    11d0:	001b0b13          	addi	s6,s6,1 # 1001 <hls_init+0x45>
    11d4:	000b4683          	lbu	a3,0(s6)
    11d8:	fdd6879b          	addiw	a5,a3,-35
    11dc:	0ff7f793          	andi	a5,a5,255
    11e0:	fefaf6e3          	bleu	a5,s5,11cc <query_config_string+0xbc>
    11e4:	40ab07b3          	sub	a5,s6,a0
    11e8:	40fc8db3          	sub	s11,s9,a5
    11ec:	001dbd93          	seqz	s11,s11
    11f0:	20fc8063          	beq	s9,a5,13f0 <query_config_string+0x2e0>
    11f4:	fff6879b          	addiw	a5,a3,-1
    11f8:	0ff7f793          	andi	a5,a5,255
    11fc:	00f46c63          	bltu	s0,a5,1214 <query_config_string+0x104>
    1200:	001b0b13          	addi	s6,s6,1
    1204:	000b4683          	lbu	a3,0(s6)
    1208:	fff6879b          	addiw	a5,a3,-1
    120c:	0ff7f793          	andi	a5,a5,255
    1210:	fef478e3          	bleu	a5,s0,1200 <query_config_string+0xf0>
    1214:	000b0793          	mv	a5,s6
    1218:	05468e63          	beq	a3,s4,1274 <query_config_string+0x164>
    121c:	14068463          	beqz	a3,1364 <query_config_string+0x254>
    1220:	09768c63          	beq	a3,s7,12b8 <query_config_string+0x1a8>
    1224:	0da68063          	beq	a3,s10,12e4 <query_config_string+0x1d4>
    1228:	fdd6871b          	addiw	a4,a3,-35
    122c:	0ff77713          	andi	a4,a4,255
    1230:	00eaf663          	bleu	a4,s5,123c <query_config_string+0x12c>
    1234:	01c0006f          	j	1250 <query_config_string+0x140>
    1238:	0b468263          	beq	a3,s4,12dc <query_config_string+0x1cc>
    123c:	00178793          	addi	a5,a5,1
    1240:	0007c683          	lbu	a3,0(a5)
    1244:	fdd6871b          	addiw	a4,a3,-35
    1248:	0ff77713          	andi	a4,a4,255
    124c:	feeaf6e3          	bleu	a4,s5,1238 <query_config_string+0x128>
    1250:	fff6871b          	addiw	a4,a3,-1
    1254:	0ff77713          	andi	a4,a4,255
    1258:	fce460e3          	bltu	s0,a4,1218 <query_config_string+0x108>
    125c:	00178793          	addi	a5,a5,1
    1260:	0007c683          	lbu	a3,0(a5)
    1264:	fff6871b          	addiw	a4,a3,-1
    1268:	0ff77713          	andi	a4,a4,255
    126c:	fee478e3          	bleu	a4,s0,125c <query_config_string+0x14c>
    1270:	fb4696e3          	bne	a3,s4,121c <query_config_string+0x10c>
    1274:	120d9e63          	bnez	s11,13b0 <query_config_string+0x2a0>
    1278:	0017c683          	lbu	a3,1(a5)
    127c:	00178513          	addi	a0,a5,1
    1280:	fff6871b          	addiw	a4,a3,-1
    1284:	0ff77713          	andi	a4,a4,255
    1288:	00e46c63          	bltu	s0,a4,12a0 <query_config_string+0x190>
    128c:	00150513          	addi	a0,a0,1
    1290:	00054683          	lbu	a3,0(a0)
    1294:	fff6871b          	addiw	a4,a3,-1
    1298:	0ff77713          	andi	a4,a4,255
    129c:	fee478e3          	bleu	a4,s0,128c <query_config_string+0x17c>
    12a0:	00078993          	mv	s3,a5
    12a4:	07d00793          	li	a5,125
    12a8:	eef69ee3          	bne	a3,a5,11a4 <query_config_string+0x94>
    12ac:	00013823          	sd	zero,16(sp)
    12b0:	00a13c23          	sd	a0,24(sp)
    12b4:	0b80006f          	j	136c <query_config_string+0x25c>
    12b8:	00178793          	addi	a5,a5,1
    12bc:	00c0006f          	j	12c8 <query_config_string+0x1b8>
    12c0:	05770c63          	beq	a4,s7,1318 <query_config_string+0x208>
    12c4:	00060793          	mv	a5,a2
    12c8:	0007c703          	lbu	a4,0(a5)
    12cc:	00178613          	addi	a2,a5,1
    12d0:	fe0718e3          	bnez	a4,12c0 <query_config_string+0x1b0>
    12d4:	00000693          	li	a3,0
    12d8:	f41ff06f          	j	1218 <query_config_string+0x108>
    12dc:	03b00693          	li	a3,59
    12e0:	f39ff06f          	j	1218 <query_config_string+0x108>
    12e4:	00005597          	auipc	a1,0x5
    12e8:	36c58593          	addi	a1,a1,876 # 6650 <softfloat_countLeadingZeros8+0x360>
    12ec:	000d8663          	beqz	s11,12f8 <query_config_string+0x1e8>
    12f0:	000c0463          	beqz	s8,12f8 <query_config_string+0x1e8>
    12f4:	00048593          	mv	a1,s1
    12f8:	00178513          	addi	a0,a5,1
    12fc:	e15ff0ef          	jal	1110 <query_config_string>
    1300:	00b13423          	sd	a1,8(sp)
    1304:	00a13023          	sd	a0,0(sp)
    1308:	0c051263          	bnez	a0,13cc <query_config_string+0x2bc>
    130c:	00158793          	addi	a5,a1,1
    1310:	0015c683          	lbu	a3,1(a1)
    1314:	f3dff06f          	j	1250 <query_config_string+0x140>
    1318:	0017c683          	lbu	a3,1(a5)
    131c:	00060793          	mv	a5,a2
    1320:	f31ff06f          	j	1250 <query_config_string+0x140>
    1324:	40ab07b3          	sub	a5,s6,a0
    1328:	40fc8db3          	sub	s11,s9,a5
    132c:	001dbd93          	seqz	s11,s11
    1330:	08fc9863          	bne	s9,a5,13c0 <query_config_string+0x2b0>
    1334:	03b00693          	li	a3,59
    1338:	080c8463          	beqz	s9,13c0 <query_config_string+0x2b0>
    133c:	00090793          	mv	a5,s2
    1340:	019505b3          	add	a1,a0,s9
    1344:	00054603          	lbu	a2,0(a0)
    1348:	0007c703          	lbu	a4,0(a5)
    134c:	00150513          	addi	a0,a0,1
    1350:	00178793          	addi	a5,a5,1
    1354:	00e60463          	beq	a2,a4,135c <query_config_string+0x24c>
    1358:	00000d93          	li	s11,0
    135c:	fea594e3          	bne	a1,a0,1344 <query_config_string+0x234>
    1360:	e95ff06f          	j	11f4 <query_config_string+0xe4>
    1364:	00013823          	sd	zero,16(sp)
    1368:	01313c23          	sd	s3,24(sp)
    136c:	08813083          	ld	ra,136(sp)
    1370:	01013503          	ld	a0,16(sp)
    1374:	01813583          	ld	a1,24(sp)
    1378:	08013403          	ld	s0,128(sp)
    137c:	07813483          	ld	s1,120(sp)
    1380:	07013903          	ld	s2,112(sp)
    1384:	06813983          	ld	s3,104(sp)
    1388:	06013a03          	ld	s4,96(sp)
    138c:	05813a83          	ld	s5,88(sp)
    1390:	05013b03          	ld	s6,80(sp)
    1394:	04813b83          	ld	s7,72(sp)
    1398:	04013c03          	ld	s8,64(sp)
    139c:	03813c83          	ld	s9,56(sp)
    13a0:	03013d03          	ld	s10,48(sp)
    13a4:	02813d83          	ld	s11,40(sp)
    13a8:	09010113          	addi	sp,sp,144
    13ac:	00008067          	ret
    13b0:	ec0c14e3          	bnez	s8,1278 <query_config_string+0x168>
    13b4:	01613823          	sd	s6,16(sp)
    13b8:	00f13c23          	sd	a5,24(sp)
    13bc:	fb1ff06f          	j	136c <query_config_string+0x25c>
    13c0:	000b0793          	mv	a5,s6
    13c4:	ea0d8ae3          	beqz	s11,1278 <query_config_string+0x168>
    13c8:	fe9ff06f          	j	13b0 <query_config_string+0x2a0>
    13cc:	00a13823          	sd	a0,16(sp)
    13d0:	00b13c23          	sd	a1,24(sp)
    13d4:	f99ff06f          	j	136c <query_config_string+0x25c>
    13d8:	00000793          	li	a5,0
    13dc:	f4dff06f          	j	1328 <query_config_string+0x218>
    13e0:	00000c93          	li	s9,0
    13e4:	d99ff06f          	j	117c <query_config_string+0x6c>
    13e8:	00000793          	li	a5,0
    13ec:	dfdff06f          	j	11e8 <query_config_string+0xd8>
    13f0:	f40c96e3          	bnez	s9,133c <query_config_string+0x22c>
    13f4:	e01ff06f          	j	11f4 <query_config_string+0xe4>

00000000000013f8 <get_uint>:
    13f8:	40a58733          	sub	a4,a1,a0
    13fc:	fe010113          	addi	sp,sp,-32
    1400:	01070713          	addi	a4,a4,16 # fffffffffffff010 <_end+0xffffffffff7bd0a0>
    1404:	00813c23          	sd	s0,24(sp)
    1408:	ff077713          	andi	a4,a4,-16
    140c:	02010413          	addi	s0,sp,32
    1410:	fea43023          	sd	a0,-32(s0)
    1414:	40e10133          	sub	sp,sp,a4
    1418:	feb43423          	sd	a1,-24(s0)
    141c:	00010613          	mv	a2,sp
    1420:	00010713          	mv	a4,sp
    1424:	04b57063          	bleu	a1,a0,1464 <get_uint+0x6c>
    1428:	00054683          	lbu	a3,0(a0)
    142c:	02200713          	li	a4,34
    1430:	00058813          	mv	a6,a1
    1434:	00050793          	mv	a5,a0
    1438:	0ae68463          	beq	a3,a4,14e0 <get_uint+0xe8>
    143c:	02000593          	li	a1,32
    1440:	00010713          	mv	a4,sp
    1444:	00d5e863          	bltu	a1,a3,1454 <get_uint+0x5c>
    1448:	01c0006f          	j	1464 <get_uint+0x6c>
    144c:	0007c683          	lbu	a3,0(a5)
    1450:	00d5fa63          	bleu	a3,a1,1464 <get_uint+0x6c>
    1454:	00170713          	addi	a4,a4,1
    1458:	fed70fa3          	sb	a3,-1(a4)
    145c:	00178793          	addi	a5,a5,1
    1460:	fef816e3          	bne	a6,a5,144c <get_uint+0x54>
    1464:	00070023          	sb	zero,0(a4)
    1468:	00064583          	lbu	a1,0(a2)
    146c:	03000793          	li	a5,48
    1470:	04f58e63          	beq	a1,a5,14cc <get_uint+0xd4>
    1474:	10058063          	beqz	a1,1574 <get_uint+0x17c>
    1478:	fd05869b          	addiw	a3,a1,-48
    147c:	0ff6f713          	andi	a4,a3,255
    1480:	00900793          	li	a5,9
    1484:	0ee7e863          	bltu	a5,a4,1574 <get_uint+0x17c>
    1488:	00160613          	addi	a2,a2,1
    148c:	00000513          	li	a0,0
    1490:	00900893          	li	a7,9
    1494:	00064583          	lbu	a1,0(a2)
    1498:	00351793          	slli	a5,a0,0x3
    149c:	00068813          	mv	a6,a3
    14a0:	00151713          	slli	a4,a0,0x1
    14a4:	fd05869b          	addiw	a3,a1,-48
    14a8:	00f70533          	add	a0,a4,a5
    14ac:	0ff6f793          	andi	a5,a3,255
    14b0:	00a80533          	add	a0,a6,a0
    14b4:	00160613          	addi	a2,a2,1
    14b8:	fcf8fee3          	bleu	a5,a7,1494 <get_uint+0x9c>
    14bc:	fe040113          	addi	sp,s0,-32
    14c0:	01813403          	ld	s0,24(sp)
    14c4:	02010113          	addi	sp,sp,32
    14c8:	00008067          	ret
    14cc:	00164703          	lbu	a4,1(a2)
    14d0:	07800793          	li	a5,120
    14d4:	10f70e63          	beq	a4,a5,15f0 <get_uint+0x1f8>
    14d8:	00000693          	li	a3,0
    14dc:	fadff06f          	j	1488 <get_uint+0x90>
    14e0:	00150513          	addi	a0,a0,1
    14e4:	18b57263          	bleu	a1,a0,1668 <get_uint+0x270>
    14e8:	0017c783          	lbu	a5,1(a5)
    14ec:	16e78e63          	beq	a5,a4,1668 <get_uint+0x270>
    14f0:	05c00313          	li	t1,92
    14f4:	00110593          	addi	a1,sp,1
    14f8:	07800e13          	li	t3,120
    14fc:	00900e93          	li	t4,9
    1500:	00500f13          	li	t5,5
    1504:	02678463          	beq	a5,t1,152c <get_uint+0x134>
    1508:	fef58fa3          	sb	a5,-1(a1)
    150c:	00150893          	addi	a7,a0,1
    1510:	00058713          	mv	a4,a1
    1514:	f508f8e3          	bleu	a6,a7,1464 <get_uint+0x6c>
    1518:	00154783          	lbu	a5,1(a0)
    151c:	00158593          	addi	a1,a1,1
    1520:	f4d782e3          	beq	a5,a3,1464 <get_uint+0x6c>
    1524:	00088513          	mv	a0,a7
    1528:	fe6790e3          	bne	a5,t1,1508 <get_uint+0x110>
    152c:	00154703          	lbu	a4,1(a0)
    1530:	fdc71ce3          	bne	a4,t3,1508 <get_uint+0x110>
    1534:	00254703          	lbu	a4,2(a0)
    1538:	fd07079b          	addiw	a5,a4,-48
    153c:	0ff7f893          	andi	a7,a5,255
    1540:	051ef863          	bleu	a7,t4,1590 <get_uint+0x198>
    1544:	fdf77793          	andi	a5,a4,-33
    1548:	fbf7879b          	addiw	a5,a5,-65
    154c:	0ff7f793          	andi	a5,a5,255
    1550:	02ff7663          	bleu	a5,t5,157c <get_uint+0x184>
    1554:	fe658fa3          	sb	t1,-1(a1)
    1558:	00150893          	addi	a7,a0,1
    155c:	00058713          	mv	a4,a1
    1560:	f108f2e3          	bleu	a6,a7,1464 <get_uint+0x6c>
    1564:	00154783          	lbu	a5,1(a0)
    1568:	00158593          	addi	a1,a1,1
    156c:	00088513          	mv	a0,a7
    1570:	fb9ff06f          	j	1528 <get_uint+0x130>
    1574:	00000513          	li	a0,0
    1578:	f45ff06f          	j	14bc <get_uint+0xc4>
    157c:	f9f7089b          	addiw	a7,a4,-97
    1580:	0ff8f893          	andi	a7,a7,255
    1584:	fc97079b          	addiw	a5,a4,-55
    1588:	011f6463          	bltu	t5,a7,1590 <get_uint+0x198>
    158c:	fa97079b          	addiw	a5,a4,-87
    1590:	00354883          	lbu	a7,3(a0)
    1594:	0ff7f793          	andi	a5,a5,255
    1598:	fd08871b          	addiw	a4,a7,-48
    159c:	0ff77f93          	andi	t6,a4,255
    15a0:	03fee063          	bltu	t4,t6,15c0 <get_uint+0x1c8>
    15a4:	0047979b          	slliw	a5,a5,0x4
    15a8:	0ff7f793          	andi	a5,a5,255
    15ac:	00f707bb          	addw	a5,a4,a5
    15b0:	0ff7f793          	andi	a5,a5,255
    15b4:	00150513          	addi	a0,a0,1
    15b8:	00250513          	addi	a0,a0,2
    15bc:	f4dff06f          	j	1508 <get_uint+0x110>
    15c0:	fdf8f713          	andi	a4,a7,-33
    15c4:	fbf7071b          	addiw	a4,a4,-65
    15c8:	0ff77713          	andi	a4,a4,255
    15cc:	feef66e3          	bltu	t5,a4,15b8 <get_uint+0x1c0>
    15d0:	f9f88f9b          	addiw	t6,a7,-97
    15d4:	0047979b          	slliw	a5,a5,0x4
    15d8:	0fffff93          	andi	t6,t6,255
    15dc:	0ff7f793          	andi	a5,a5,255
    15e0:	fa98871b          	addiw	a4,a7,-87
    15e4:	fdff74e3          	bleu	t6,t5,15ac <get_uint+0x1b4>
    15e8:	fc98871b          	addiw	a4,a7,-55
    15ec:	fc1ff06f          	j	15ac <get_uint+0x1b4>
    15f0:	00264703          	lbu	a4,2(a2)
    15f4:	00000513          	li	a0,0
    15f8:	00260613          	addi	a2,a2,2
    15fc:	ec0700e3          	beqz	a4,14bc <get_uint+0xc4>
    1600:	00900813          	li	a6,9
    1604:	00500893          	li	a7,5
    1608:	05f00313          	li	t1,95
    160c:	0180006f          	j	1624 <get_uint+0x22c>
    1610:	02f8fc63          	bleu	a5,a7,1648 <get_uint+0x250>
    1614:	ea6714e3          	bne	a4,t1,14bc <get_uint+0xc4>
    1618:	00160613          	addi	a2,a2,1
    161c:	00064703          	lbu	a4,0(a2)
    1620:	e8070ee3          	beqz	a4,14bc <get_uint+0xc4>
    1624:	fdf77793          	andi	a5,a4,-33
    1628:	fd07069b          	addiw	a3,a4,-48
    162c:	fbf7879b          	addiw	a5,a5,-65
    1630:	0ff6f593          	andi	a1,a3,255
    1634:	0ff7f793          	andi	a5,a5,255
    1638:	fcb86ce3          	bltu	a6,a1,1610 <get_uint+0x218>
    163c:	00451513          	slli	a0,a0,0x4
    1640:	00a68533          	add	a0,a3,a0
    1644:	fd5ff06f          	j	1618 <get_uint+0x220>
    1648:	f9f7079b          	addiw	a5,a4,-97
    164c:	0ff7f793          	andi	a5,a5,255
    1650:	fa97069b          	addiw	a3,a4,-87
    1654:	00451513          	slli	a0,a0,0x4
    1658:	fef8f4e3          	bleu	a5,a7,1640 <get_uint+0x248>
    165c:	fc97069b          	addiw	a3,a4,-55
    1660:	00a68533          	add	a0,a3,a0
    1664:	fb5ff06f          	j	1618 <get_uint+0x220>
    1668:	00010713          	mv	a4,sp
    166c:	df9ff06f          	j	1464 <get_uint+0x6c>

0000000000001670 <parse_config_string>:
    1670:	f9010113          	addi	sp,sp,-112
    1674:	06113423          	sd	ra,104(sp)
    1678:	06813023          	sd	s0,96(sp)
    167c:	04913c23          	sd	s1,88(sp)
    1680:	05213823          	sd	s2,80(sp)
    1684:	05313423          	sd	s3,72(sp)
    1688:	05413023          	sd	s4,64(sp)
    168c:	03513c23          	sd	s5,56(sp)
    1690:	f1402a73          	csrr	s4,mcfgaddr
    1694:	00005597          	auipc	a1,0x5
    1698:	fc458593          	addi	a1,a1,-60 # 6658 <softfloat_countLeadingZeros8+0x368>
    169c:	000a0513          	mv	a0,s4
    16a0:	a71ff0ef          	jal	1110 <query_config_string>
    16a4:	00a13823          	sd	a0,16(sp)
    16a8:	00b13c23          	sd	a1,24(sp)
    16ac:	10050863          	beqz	a0,17bc <parse_config_string+0x14c>
    16b0:	01813583          	ld	a1,24(sp)
    16b4:	00000993          	li	s3,0
    16b8:	00005917          	auipc	s2,0x5
    16bc:	0d890913          	addi	s2,s2,216 # 6790 <num_harts>
    16c0:	d39ff0ef          	jal	13f8 <get_uint>
    16c4:	00005597          	auipc	a1,0x5
    16c8:	fd458593          	addi	a1,a1,-44 # 6698 <softfloat_countLeadingZeros8+0x3a8>
    16cc:	000a0513          	mv	a0,s4
    16d0:	a41ff0ef          	jal	1110 <query_config_string>
    16d4:	00b13c23          	sd	a1,24(sp)
    16d8:	00a13823          	sd	a0,16(sp)
    16dc:	d1dff0ef          	jal	13f8 <get_uint>
    16e0:	00005797          	auipc	a5,0x5
    16e4:	0a878793          	addi	a5,a5,168 # 6788 <mem_size>
    16e8:	00a7b023          	sd	a0,0(a5)
    16ec:	00008ab7          	lui	s5,0x8
    16f0:	00000413          	li	s0,0
    16f4:	0300006f          	j	1724 <parse_config_string+0xb4>
    16f8:	d01ff0ef          	jal	13f8 <get_uint>
    16fc:	015507b3          	add	a5,a0,s5
    1700:	8a87b483          	ld	s1,-1880(a5)
    1704:	00050593          	mv	a1,a0
    1708:	00048513          	mv	a0,s1
    170c:	8b1ff0ef          	jal	fbc <hls_init>
    1710:	00093783          	ld	a5,0(s2)
    1714:	00178713          	addi	a4,a5,1
    1718:	00e93023          	sd	a4,0(s2)
    171c:	06f49e63          	bne	s1,a5,1798 <parse_config_string+0x128>
    1720:	0014041b          	addiw	s0,s0,1
    1724:	00040713          	mv	a4,s0
    1728:	00098693          	mv	a3,s3
    172c:	00005617          	auipc	a2,0x5
    1730:	f7c60613          	addi	a2,a2,-132 # 66a8 <softfloat_countLeadingZeros8+0x3b8>
    1734:	02000593          	li	a1,32
    1738:	01010513          	addi	a0,sp,16
    173c:	44c040ef          	jal	5b88 <snprintf>
    1740:	01010593          	addi	a1,sp,16
    1744:	000a0513          	mv	a0,s4
    1748:	9c9ff0ef          	jal	1110 <query_config_string>
    174c:	00a13023          	sd	a0,0(sp)
    1750:	00b13423          	sd	a1,8(sp)
    1754:	fa0512e3          	bnez	a0,16f8 <parse_config_string+0x88>
    1758:	00040663          	beqz	s0,1764 <parse_config_string+0xf4>
    175c:	0019899b          	addiw	s3,s3,1
    1760:	f91ff06f          	j	16f0 <parse_config_string+0x80>
    1764:	00093783          	ld	a5,0(s2)
    1768:	08078e63          	beqz	a5,1804 <parse_config_string+0x194>
    176c:	00800713          	li	a4,8
    1770:	06f76863          	bltu	a4,a5,17e0 <parse_config_string+0x170>
    1774:	06813083          	ld	ra,104(sp)
    1778:	06013403          	ld	s0,96(sp)
    177c:	05813483          	ld	s1,88(sp)
    1780:	05013903          	ld	s2,80(sp)
    1784:	04813983          	ld	s3,72(sp)
    1788:	04013a03          	ld	s4,64(sp)
    178c:	03813a83          	ld	s5,56(sp)
    1790:	07010113          	addi	sp,sp,112
    1794:	00008067          	ret
    1798:	00005697          	auipc	a3,0x5
    179c:	f2068693          	addi	a3,a3,-224 # 66b8 <softfloat_countLeadingZeros8+0x3c8>
    17a0:	0ba00613          	li	a2,186
    17a4:	00005597          	auipc	a1,0x5
    17a8:	ed458593          	addi	a1,a1,-300 # 6678 <softfloat_countLeadingZeros8+0x388>
    17ac:	00005517          	auipc	a0,0x5
    17b0:	cdc50513          	addi	a0,a0,-804 # 6488 <softfloat_countLeadingZeros8+0x198>
    17b4:	ff9fe0ef          	jal	7ac <printm>
    17b8:	fedfe0ef          	jal	7a4 <poweroff>
    17bc:	00005697          	auipc	a3,0x5
    17c0:	eac68693          	addi	a3,a3,-340 # 6668 <softfloat_countLeadingZeros8+0x378>
    17c4:	0a700613          	li	a2,167
    17c8:	00005597          	auipc	a1,0x5
    17cc:	eb058593          	addi	a1,a1,-336 # 6678 <softfloat_countLeadingZeros8+0x388>
    17d0:	00005517          	auipc	a0,0x5
    17d4:	cb850513          	addi	a0,a0,-840 # 6488 <softfloat_countLeadingZeros8+0x198>
    17d8:	fd5fe0ef          	jal	7ac <printm>
    17dc:	fc9fe0ef          	jal	7a4 <poweroff>
    17e0:	00005697          	auipc	a3,0x5
    17e4:	f0068693          	addi	a3,a3,-256 # 66e0 <softfloat_countLeadingZeros8+0x3f0>
    17e8:	0c000613          	li	a2,192
    17ec:	00005597          	auipc	a1,0x5
    17f0:	e8c58593          	addi	a1,a1,-372 # 6678 <softfloat_countLeadingZeros8+0x388>
    17f4:	00005517          	auipc	a0,0x5
    17f8:	c9450513          	addi	a0,a0,-876 # 6488 <softfloat_countLeadingZeros8+0x198>
    17fc:	fb1fe0ef          	jal	7ac <printm>
    1800:	fa5fe0ef          	jal	7a4 <poweroff>
    1804:	00005697          	auipc	a3,0x5
    1808:	ecc68693          	addi	a3,a3,-308 # 66d0 <softfloat_countLeadingZeros8+0x3e0>
    180c:	0bf00613          	li	a2,191
    1810:	00005597          	auipc	a1,0x5
    1814:	e6858593          	addi	a1,a1,-408 # 6678 <softfloat_countLeadingZeros8+0x388>
    1818:	00005517          	auipc	a0,0x5
    181c:	c7050513          	addi	a0,a0,-912 # 6488 <softfloat_countLeadingZeros8+0x198>
    1820:	f8dfe0ef          	jal	7ac <printm>
    1824:	f81fe0ef          	jal	7a4 <poweroff>

0000000000001828 <get_f32_reg>:
    1828:	e0000553          	fmv.x.s	a0,ft0
    182c:	00028067          	jr	t0
    1830:	e0008553          	fmv.x.s	a0,ft1
    1834:	00028067          	jr	t0
    1838:	e0010553          	fmv.x.s	a0,ft2
    183c:	00028067          	jr	t0
    1840:	e0018553          	fmv.x.s	a0,ft3
    1844:	00028067          	jr	t0
    1848:	e0020553          	fmv.x.s	a0,ft4
    184c:	00028067          	jr	t0
    1850:	e0028553          	fmv.x.s	a0,ft5
    1854:	00028067          	jr	t0
    1858:	e0030553          	fmv.x.s	a0,ft6
    185c:	00028067          	jr	t0
    1860:	e0038553          	fmv.x.s	a0,ft7
    1864:	00028067          	jr	t0
    1868:	e0040553          	fmv.x.s	a0,fs0
    186c:	00028067          	jr	t0
    1870:	e0048553          	fmv.x.s	a0,fs1
    1874:	00028067          	jr	t0
    1878:	e0050553          	fmv.x.s	a0,fa0
    187c:	00028067          	jr	t0
    1880:	e0058553          	fmv.x.s	a0,fa1
    1884:	00028067          	jr	t0
    1888:	e0060553          	fmv.x.s	a0,fa2
    188c:	00028067          	jr	t0
    1890:	e0068553          	fmv.x.s	a0,fa3
    1894:	00028067          	jr	t0
    1898:	e0070553          	fmv.x.s	a0,fa4
    189c:	00028067          	jr	t0
    18a0:	e0078553          	fmv.x.s	a0,fa5
    18a4:	00028067          	jr	t0
    18a8:	e0080553          	fmv.x.s	a0,fa6
    18ac:	00028067          	jr	t0
    18b0:	e0088553          	fmv.x.s	a0,fa7
    18b4:	00028067          	jr	t0
    18b8:	e0090553          	fmv.x.s	a0,fs2
    18bc:	00028067          	jr	t0
    18c0:	e0098553          	fmv.x.s	a0,fs3
    18c4:	00028067          	jr	t0
    18c8:	e00a0553          	fmv.x.s	a0,fs4
    18cc:	00028067          	jr	t0
    18d0:	e00a8553          	fmv.x.s	a0,fs5
    18d4:	00028067          	jr	t0
    18d8:	e00b0553          	fmv.x.s	a0,fs6
    18dc:	00028067          	jr	t0
    18e0:	e00b8553          	fmv.x.s	a0,fs7
    18e4:	00028067          	jr	t0
    18e8:	e00c0553          	fmv.x.s	a0,fs8
    18ec:	00028067          	jr	t0
    18f0:	e00c8553          	fmv.x.s	a0,fs9
    18f4:	00028067          	jr	t0
    18f8:	e00d0553          	fmv.x.s	a0,fs10
    18fc:	00028067          	jr	t0
    1900:	e00d8553          	fmv.x.s	a0,fs11
    1904:	00028067          	jr	t0
    1908:	e00e0553          	fmv.x.s	a0,ft8
    190c:	00028067          	jr	t0
    1910:	e00e8553          	fmv.x.s	a0,ft9
    1914:	00028067          	jr	t0
    1918:	e00f0553          	fmv.x.s	a0,ft10
    191c:	00028067          	jr	t0
    1920:	e00f8553          	fmv.x.s	a0,ft11
    1924:	00028067          	jr	t0

0000000000001928 <put_f32_reg>:
    1928:	f0050053          	fmv.s.x	ft0,a0
    192c:	00028067          	jr	t0
    1930:	f00500d3          	fmv.s.x	ft1,a0
    1934:	00028067          	jr	t0
    1938:	f0050153          	fmv.s.x	ft2,a0
    193c:	00028067          	jr	t0
    1940:	f00501d3          	fmv.s.x	ft3,a0
    1944:	00028067          	jr	t0
    1948:	f0050253          	fmv.s.x	ft4,a0
    194c:	00028067          	jr	t0
    1950:	f00502d3          	fmv.s.x	ft5,a0
    1954:	00028067          	jr	t0
    1958:	f0050353          	fmv.s.x	ft6,a0
    195c:	00028067          	jr	t0
    1960:	f00503d3          	fmv.s.x	ft7,a0
    1964:	00028067          	jr	t0
    1968:	f0050453          	fmv.s.x	fs0,a0
    196c:	00028067          	jr	t0
    1970:	f00504d3          	fmv.s.x	fs1,a0
    1974:	00028067          	jr	t0
    1978:	f0050553          	fmv.s.x	fa0,a0
    197c:	00028067          	jr	t0
    1980:	f00505d3          	fmv.s.x	fa1,a0
    1984:	00028067          	jr	t0
    1988:	f0050653          	fmv.s.x	fa2,a0
    198c:	00028067          	jr	t0
    1990:	f00506d3          	fmv.s.x	fa3,a0
    1994:	00028067          	jr	t0
    1998:	f0050753          	fmv.s.x	fa4,a0
    199c:	00028067          	jr	t0
    19a0:	f00507d3          	fmv.s.x	fa5,a0
    19a4:	00028067          	jr	t0
    19a8:	f0050853          	fmv.s.x	fa6,a0
    19ac:	00028067          	jr	t0
    19b0:	f00508d3          	fmv.s.x	fa7,a0
    19b4:	00028067          	jr	t0
    19b8:	f0050953          	fmv.s.x	fs2,a0
    19bc:	00028067          	jr	t0
    19c0:	f00509d3          	fmv.s.x	fs3,a0
    19c4:	00028067          	jr	t0
    19c8:	f0050a53          	fmv.s.x	fs4,a0
    19cc:	00028067          	jr	t0
    19d0:	f0050ad3          	fmv.s.x	fs5,a0
    19d4:	00028067          	jr	t0
    19d8:	f0050b53          	fmv.s.x	fs6,a0
    19dc:	00028067          	jr	t0
    19e0:	f0050bd3          	fmv.s.x	fs7,a0
    19e4:	00028067          	jr	t0
    19e8:	f0050c53          	fmv.s.x	fs8,a0
    19ec:	00028067          	jr	t0
    19f0:	f0050cd3          	fmv.s.x	fs9,a0
    19f4:	00028067          	jr	t0
    19f8:	f0050d53          	fmv.s.x	fs10,a0
    19fc:	00028067          	jr	t0
    1a00:	f0050dd3          	fmv.s.x	fs11,a0
    1a04:	00028067          	jr	t0
    1a08:	f0050e53          	fmv.s.x	ft8,a0
    1a0c:	00028067          	jr	t0
    1a10:	f0050ed3          	fmv.s.x	ft9,a0
    1a14:	00028067          	jr	t0
    1a18:	f0050f53          	fmv.s.x	ft10,a0
    1a1c:	00028067          	jr	t0
    1a20:	f0050fd3          	fmv.s.x	ft11,a0
    1a24:	00028067          	jr	t0

0000000000001a28 <get_f64_reg>:
    1a28:	e2000553          	fmv.x.d	a0,ft0
    1a2c:	00028067          	jr	t0
    1a30:	e2008553          	fmv.x.d	a0,ft1
    1a34:	00028067          	jr	t0
    1a38:	e2010553          	fmv.x.d	a0,ft2
    1a3c:	00028067          	jr	t0
    1a40:	e2018553          	fmv.x.d	a0,ft3
    1a44:	00028067          	jr	t0
    1a48:	e2020553          	fmv.x.d	a0,ft4
    1a4c:	00028067          	jr	t0
    1a50:	e2028553          	fmv.x.d	a0,ft5
    1a54:	00028067          	jr	t0
    1a58:	e2030553          	fmv.x.d	a0,ft6
    1a5c:	00028067          	jr	t0
    1a60:	e2038553          	fmv.x.d	a0,ft7
    1a64:	00028067          	jr	t0
    1a68:	e2040553          	fmv.x.d	a0,fs0
    1a6c:	00028067          	jr	t0
    1a70:	e2048553          	fmv.x.d	a0,fs1
    1a74:	00028067          	jr	t0
    1a78:	e2050553          	fmv.x.d	a0,fa0
    1a7c:	00028067          	jr	t0
    1a80:	e2058553          	fmv.x.d	a0,fa1
    1a84:	00028067          	jr	t0
    1a88:	e2060553          	fmv.x.d	a0,fa2
    1a8c:	00028067          	jr	t0
    1a90:	e2068553          	fmv.x.d	a0,fa3
    1a94:	00028067          	jr	t0
    1a98:	e2070553          	fmv.x.d	a0,fa4
    1a9c:	00028067          	jr	t0
    1aa0:	e2078553          	fmv.x.d	a0,fa5
    1aa4:	00028067          	jr	t0
    1aa8:	e2080553          	fmv.x.d	a0,fa6
    1aac:	00028067          	jr	t0
    1ab0:	e2088553          	fmv.x.d	a0,fa7
    1ab4:	00028067          	jr	t0
    1ab8:	e2090553          	fmv.x.d	a0,fs2
    1abc:	00028067          	jr	t0
    1ac0:	e2098553          	fmv.x.d	a0,fs3
    1ac4:	00028067          	jr	t0
    1ac8:	e20a0553          	fmv.x.d	a0,fs4
    1acc:	00028067          	jr	t0
    1ad0:	e20a8553          	fmv.x.d	a0,fs5
    1ad4:	00028067          	jr	t0
    1ad8:	e20b0553          	fmv.x.d	a0,fs6
    1adc:	00028067          	jr	t0
    1ae0:	e20b8553          	fmv.x.d	a0,fs7
    1ae4:	00028067          	jr	t0
    1ae8:	e20c0553          	fmv.x.d	a0,fs8
    1aec:	00028067          	jr	t0
    1af0:	e20c8553          	fmv.x.d	a0,fs9
    1af4:	00028067          	jr	t0
    1af8:	e20d0553          	fmv.x.d	a0,fs10
    1afc:	00028067          	jr	t0
    1b00:	e20d8553          	fmv.x.d	a0,fs11
    1b04:	00028067          	jr	t0
    1b08:	e20e0553          	fmv.x.d	a0,ft8
    1b0c:	00028067          	jr	t0
    1b10:	e20e8553          	fmv.x.d	a0,ft9
    1b14:	00028067          	jr	t0
    1b18:	e20f0553          	fmv.x.d	a0,ft10
    1b1c:	00028067          	jr	t0
    1b20:	e20f8553          	fmv.x.d	a0,ft11
    1b24:	00028067          	jr	t0

0000000000001b28 <put_f64_reg>:
    1b28:	f2050053          	fmv.d.x	ft0,a0
    1b2c:	00028067          	jr	t0
    1b30:	f20500d3          	fmv.d.x	ft1,a0
    1b34:	00028067          	jr	t0
    1b38:	f2050153          	fmv.d.x	ft2,a0
    1b3c:	00028067          	jr	t0
    1b40:	f20501d3          	fmv.d.x	ft3,a0
    1b44:	00028067          	jr	t0
    1b48:	f2050253          	fmv.d.x	ft4,a0
    1b4c:	00028067          	jr	t0
    1b50:	f20502d3          	fmv.d.x	ft5,a0
    1b54:	00028067          	jr	t0
    1b58:	f2050353          	fmv.d.x	ft6,a0
    1b5c:	00028067          	jr	t0
    1b60:	f20503d3          	fmv.d.x	ft7,a0
    1b64:	00028067          	jr	t0
    1b68:	f2050453          	fmv.d.x	fs0,a0
    1b6c:	00028067          	jr	t0
    1b70:	f20504d3          	fmv.d.x	fs1,a0
    1b74:	00028067          	jr	t0
    1b78:	f2050553          	fmv.d.x	fa0,a0
    1b7c:	00028067          	jr	t0
    1b80:	f20505d3          	fmv.d.x	fa1,a0
    1b84:	00028067          	jr	t0
    1b88:	f2050653          	fmv.d.x	fa2,a0
    1b8c:	00028067          	jr	t0
    1b90:	f20506d3          	fmv.d.x	fa3,a0
    1b94:	00028067          	jr	t0
    1b98:	f2050753          	fmv.d.x	fa4,a0
    1b9c:	00028067          	jr	t0
    1ba0:	f20507d3          	fmv.d.x	fa5,a0
    1ba4:	00028067          	jr	t0
    1ba8:	f2050853          	fmv.d.x	fa6,a0
    1bac:	00028067          	jr	t0
    1bb0:	f20508d3          	fmv.d.x	fa7,a0
    1bb4:	00028067          	jr	t0
    1bb8:	f2050953          	fmv.d.x	fs2,a0
    1bbc:	00028067          	jr	t0
    1bc0:	f20509d3          	fmv.d.x	fs3,a0
    1bc4:	00028067          	jr	t0
    1bc8:	f2050a53          	fmv.d.x	fs4,a0
    1bcc:	00028067          	jr	t0
    1bd0:	f2050ad3          	fmv.d.x	fs5,a0
    1bd4:	00028067          	jr	t0
    1bd8:	f2050b53          	fmv.d.x	fs6,a0
    1bdc:	00028067          	jr	t0
    1be0:	f2050bd3          	fmv.d.x	fs7,a0
    1be4:	00028067          	jr	t0
    1be8:	f2050c53          	fmv.d.x	fs8,a0
    1bec:	00028067          	jr	t0
    1bf0:	f2050cd3          	fmv.d.x	fs9,a0
    1bf4:	00028067          	jr	t0
    1bf8:	f2050d53          	fmv.d.x	fs10,a0
    1bfc:	00028067          	jr	t0
    1c00:	f2050dd3          	fmv.d.x	fs11,a0
    1c04:	00028067          	jr	t0
    1c08:	f2050e53          	fmv.d.x	ft8,a0
    1c0c:	00028067          	jr	t0
    1c10:	f2050ed3          	fmv.d.x	ft9,a0
    1c14:	00028067          	jr	t0
    1c18:	f2050f53          	fmv.d.x	ft10,a0
    1c1c:	00028067          	jr	t0
    1c20:	f2050fd3          	fmv.d.x	ft11,a0
    1c24:	00028067          	jr	t0

0000000000001c28 <truly_illegal_insn>:
    1c28:	00068593          	mv	a1,a3
    1c2c:	00060513          	mv	a0,a2
    1c30:	974ff06f          	j	da4 <redirect_trap>

0000000000001c34 <illegal_insn_trap>:
    1c34:	00020837          	lui	a6,0x20
    1c38:	300826f3          	csrrs	a3,mstatus,a6
    1c3c:	00062703          	lw	a4,0(a2)
    1c40:	30069073          	csrw	mstatus,a3
    1c44:	00300813          	li	a6,3
    1c48:	00377893          	andi	a7,a4,3
    1c4c:	03089263          	bne	a7,a6,1c70 <illegal_insn_trap+0x3c>
    1c50:	00460793          	addi	a5,a2,4
    1c54:	34179073          	csrw	mepc,a5
    1c58:	00004817          	auipc	a6,0x4
    1c5c:	55880813          	addi	a6,a6,1368 # 61b0 <illegal_insn_trap_table>
    1c60:	07c77793          	andi	a5,a4,124
    1c64:	010787b3          	add	a5,a5,a6
    1c68:	0007a303          	lw	t1,0(a5)
    1c6c:	00030067          	jr	t1
    1c70:	fb9ff06f          	j	1c28 <truly_illegal_insn>

0000000000001c74 <emulate_system_opcode>:
    1c74:	00001837          	lui	a6,0x1
    1c78:	0147589b          	srliw	a7,a4,0x14
    1c7c:	c028031b          	addiw	t1,a6,-1022
    1c80:	00c7579b          	srliw	a5,a4,0xc
    1c84:	10688863          	beq	a7,t1,1d94 <emulate_system_opcode+0x120>
    1c88:	03137063          	bleu	a7,t1,1ca8 <emulate_system_opcode+0x34>
    1c8c:	d018031b          	addiw	t1,a6,-767
    1c90:	08688263          	beq	a7,t1,1d14 <emulate_system_opcode+0xa0>
    1c94:	d028031b          	addiw	t1,a6,-766
    1c98:	0c688e63          	beq	a7,t1,1d74 <emulate_system_opcode+0x100>
    1c9c:	d008081b          	addiw	a6,a6,-768
    1ca0:	09088a63          	beq	a7,a6,1d34 <emulate_system_opcode+0xc0>
    1ca4:	f85ff06f          	j	1c28 <truly_illegal_insn>
    1ca8:	c008031b          	addiw	t1,a6,-1024
    1cac:	0a688463          	beq	a7,t1,1d54 <emulate_system_opcode+0xe0>
    1cb0:	c018081b          	addiw	a6,a6,-1023
    1cb4:	ff0898e3          	bne	a7,a6,1ca4 <emulate_system_opcode+0x30>
    1cb8:	f0102873          	csrr	a6,mtime
    1cbc:	000018b7          	lui	a7,0x1
    1cc0:	01110333          	add	t1,sp,a7
    1cc4:	fffff8b7          	lui	a7,0xfffff
    1cc8:	011378b3          	and	a7,t1,a7
    1ccc:	fd88b883          	ld	a7,-40(a7) # ffffffffffffefd8 <_end+0xffffffffff7bd068>
    1cd0:	01180833          	add	a6,a6,a7
    1cd4:	0077f793          	andi	a5,a5,7
    1cd8:	00100893          	li	a7,1
    1cdc:	fd1784e3          	beq	a5,a7,1ca4 <emulate_system_opcode+0x30>
    1ce0:	fc0782e3          	beqz	a5,1ca4 <emulate_system_opcode+0x30>
    1ce4:	00400893          	li	a7,4
    1ce8:	fb178ee3          	beq	a5,a7,1ca4 <emulate_system_opcode+0x30>
    1cec:	00500893          	li	a7,5
    1cf0:	fb178ae3          	beq	a5,a7,1ca4 <emulate_system_opcode+0x30>
    1cf4:	00f7579b          	srliw	a5,a4,0xf
    1cf8:	01f7f793          	andi	a5,a5,31
    1cfc:	fa0794e3          	bnez	a5,1ca4 <emulate_system_opcode+0x30>
    1d00:	0047571b          	srliw	a4,a4,0x4
    1d04:	0f877713          	andi	a4,a4,248
    1d08:	00e50533          	add	a0,a0,a4
    1d0c:	01053023          	sd	a6,0(a0)
    1d10:	00008067          	ret
    1d14:	f0102873          	csrr	a6,mtime
    1d18:	000018b7          	lui	a7,0x1
    1d1c:	01110333          	add	t1,sp,a7
    1d20:	fffff8b7          	lui	a7,0xfffff
    1d24:	011378b3          	and	a7,t1,a7
    1d28:	ff08b883          	ld	a7,-16(a7) # ffffffffffffeff0 <_end+0xffffffffff7bd080>
    1d2c:	01180833          	add	a6,a6,a7
    1d30:	fa5ff06f          	j	1cd4 <emulate_system_opcode+0x60>
    1d34:	f0002873          	csrr	a6,mcycle
    1d38:	000018b7          	lui	a7,0x1
    1d3c:	01110333          	add	t1,sp,a7
    1d40:	fffff8b7          	lui	a7,0xfffff
    1d44:	011378b3          	and	a7,t1,a7
    1d48:	ff88b883          	ld	a7,-8(a7) # ffffffffffffeff8 <_end+0xffffffffff7bd088>
    1d4c:	01180833          	add	a6,a6,a7
    1d50:	f85ff06f          	j	1cd4 <emulate_system_opcode+0x60>
    1d54:	f0002873          	csrr	a6,mcycle
    1d58:	000018b7          	lui	a7,0x1
    1d5c:	01110333          	add	t1,sp,a7
    1d60:	fffff8b7          	lui	a7,0xfffff
    1d64:	011378b3          	and	a7,t1,a7
    1d68:	fe08b883          	ld	a7,-32(a7) # ffffffffffffefe0 <_end+0xffffffffff7bd070>
    1d6c:	01180833          	add	a6,a6,a7
    1d70:	f65ff06f          	j	1cd4 <emulate_system_opcode+0x60>
    1d74:	f0202873          	csrr	a6,minstret
    1d78:	000018b7          	lui	a7,0x1
    1d7c:	01110333          	add	t1,sp,a7
    1d80:	fffff8b7          	lui	a7,0xfffff
    1d84:	011378b3          	and	a7,t1,a7
    1d88:	0008b883          	ld	a7,0(a7) # fffffffffffff000 <_end+0xffffffffff7bd090>
    1d8c:	01180833          	add	a6,a6,a7
    1d90:	f45ff06f          	j	1cd4 <emulate_system_opcode+0x60>
    1d94:	f0202873          	csrr	a6,minstret
    1d98:	000018b7          	lui	a7,0x1
    1d9c:	01110333          	add	t1,sp,a7
    1da0:	fffff8b7          	lui	a7,0xfffff
    1da4:	011378b3          	and	a7,t1,a7
    1da8:	fe88b883          	ld	a7,-24(a7) # ffffffffffffefe8 <_end+0xffffffffff7bd078>
    1dac:	01180833          	add	a6,a6,a7
    1db0:	f25ff06f          	j	1cd4 <emulate_system_opcode+0x60>

0000000000001db4 <emulate_fp>:
    1db4:	000067b7          	lui	a5,0x6
    1db8:	00f6f7b3          	and	a5,a3,a5
    1dbc:	02078863          	beqz	a5,1dec <emulate_fp+0x38>
    1dc0:	0197579b          	srliw	a5,a4,0x19
    1dc4:	00004817          	auipc	a6,0x4
    1dc8:	46c80813          	addi	a6,a6,1132 # 6230 <fp_emulation_table>
    1dcc:	07c7f793          	andi	a5,a5,124
    1dd0:	010787b3          	add	a5,a5,a6
    1dd4:	0007a303          	lw	t1,0(a5) # 6000 <logo+0x280>
    1dd8:	00202273          	frrm	tp
    1ddc:	000077b7          	lui	a5,0x7
    1de0:	00f77833          	and	a6,a4,a5
    1de4:	00f81663          	bne	a6,a5,1df0 <emulate_fp+0x3c>
    1de8:	00030067          	jr	t1
    1dec:	e3dff06f          	j	1c28 <truly_illegal_insn>
    1df0:	00c7579b          	srliw	a5,a4,0xc
    1df4:	0077f793          	andi	a5,a5,7
    1df8:	00400813          	li	a6,4
    1dfc:	fef868e3          	bltu	a6,a5,1dec <emulate_fp+0x38>
    1e00:	02079213          	slli	tp,a5,0x20
    1e04:	02025213          	srli	tp,tp,0x20
    1e08:	fe1ff06f          	j	1de8 <emulate_fp+0x34>

0000000000001e0c <emulate_any_fadd>:
    1e0c:	ff010113          	addi	sp,sp,-16
    1e10:	0197581b          	srliw	a6,a4,0x19
    1e14:	00813023          	sd	s0,0(sp)
    1e18:	00113423          	sd	ra,8(sp)
    1e1c:	00387813          	andi	a6,a6,3
    1e20:	00070413          	mv	s0,a4
    1e24:	00080e63          	beqz	a6,1e40 <emulate_any_fadd+0x34>
    1e28:	00100893          	li	a7,1
    1e2c:	07180863          	beq	a6,a7,1e9c <emulate_any_fadd+0x90>
    1e30:	00813083          	ld	ra,8(sp)
    1e34:	00013403          	ld	s0,0(sp)
    1e38:	01010113          	addi	sp,sp,16
    1e3c:	dedff06f          	j	1c28 <truly_illegal_insn>
    1e40:	00c7551b          	srliw	a0,a4,0xc
    1e44:	0117569b          	srliw	a3,a4,0x11
    1e48:	0f857513          	andi	a0,a0,248
    1e4c:	00000717          	auipc	a4,0x0
    1e50:	00a70733          	add	a4,a4,a0
    1e54:	9dc702e7          	jalr	t0,a4,-1572 # 1828 <get_f32_reg>
    1e58:	00050713          	mv	a4,a0
    1e5c:	0044541b          	srliw	s0,s0,0x4
    1e60:	0f86f513          	andi	a0,a3,248
    1e64:	00000697          	auipc	a3,0x0
    1e68:	00a686b3          	add	a3,a3,a0
    1e6c:	9c4682e7          	jalr	t0,a3,-1596 # 1828 <get_f32_reg>
    1e70:	00f545b3          	xor	a1,a0,a5
    1e74:	00070513          	mv	a0,a4
    1e78:	745000ef          	jal	2dbc <f32_add>
    1e7c:	0f847413          	andi	s0,s0,248
    1e80:	00000797          	auipc	a5,0x0
    1e84:	008787b3          	add	a5,a5,s0
    1e88:	aa8782e7          	jalr	t0,a5,-1368 # 1928 <put_f32_reg>
    1e8c:	00813083          	ld	ra,8(sp)
    1e90:	00013403          	ld	s0,0(sp)
    1e94:	01010113          	addi	sp,sp,16
    1e98:	00008067          	ret
    1e9c:	00c7551b          	srliw	a0,a4,0xc
    1ea0:	02079593          	slli	a1,a5,0x20
    1ea4:	0114569b          	srliw	a3,s0,0x11
    1ea8:	0f857513          	andi	a0,a0,248
    1eac:	00000717          	auipc	a4,0x0
    1eb0:	00a70733          	add	a4,a4,a0
    1eb4:	b7c702e7          	jalr	t0,a4,-1156 # 1a28 <get_f64_reg>
    1eb8:	00050713          	mv	a4,a0
    1ebc:	0044541b          	srliw	s0,s0,0x4
    1ec0:	0f86f513          	andi	a0,a3,248
    1ec4:	00000697          	auipc	a3,0x0
    1ec8:	00a686b3          	add	a3,a3,a0
    1ecc:	b64682e7          	jalr	t0,a3,-1180 # 1a28 <get_f64_reg>
    1ed0:	00a5c5b3          	xor	a1,a1,a0
    1ed4:	00070513          	mv	a0,a4
    1ed8:	6b8010ef          	jal	3590 <f64_add>
    1edc:	0f847413          	andi	s0,s0,248
    1ee0:	00000797          	auipc	a5,0x0
    1ee4:	008787b3          	add	a5,a5,s0
    1ee8:	c48782e7          	jalr	t0,a5,-952 # 1b28 <put_f64_reg>
    1eec:	00813083          	ld	ra,8(sp)
    1ef0:	00013403          	ld	s0,0(sp)
    1ef4:	01010113          	addi	sp,sp,16
    1ef8:	00008067          	ret

0000000000001efc <emulate_fadd>:
    1efc:	00000793          	li	a5,0
    1f00:	f0dff06f          	j	1e0c <emulate_any_fadd>

0000000000001f04 <emulate_fsub>:
    1f04:	800007b7          	lui	a5,0x80000
    1f08:	f05ff06f          	j	1e0c <emulate_any_fadd>

0000000000001f0c <emulate_fmul>:
    1f0c:	ff010113          	addi	sp,sp,-16
    1f10:	0197579b          	srliw	a5,a4,0x19
    1f14:	00813023          	sd	s0,0(sp)
    1f18:	00113423          	sd	ra,8(sp)
    1f1c:	0037f793          	andi	a5,a5,3
    1f20:	00070413          	mv	s0,a4
    1f24:	00078e63          	beqz	a5,1f40 <emulate_fmul+0x34>
    1f28:	00100813          	li	a6,1
    1f2c:	07078863          	beq	a5,a6,1f9c <emulate_fmul+0x90>
    1f30:	00813083          	ld	ra,8(sp)
    1f34:	00013403          	ld	s0,0(sp)
    1f38:	01010113          	addi	sp,sp,16
    1f3c:	cedff06f          	j	1c28 <truly_illegal_insn>
    1f40:	00c7551b          	srliw	a0,a4,0xc
    1f44:	0f857513          	andi	a0,a0,248
    1f48:	0117571b          	srliw	a4,a4,0x11
    1f4c:	00000797          	auipc	a5,0x0
    1f50:	00a787b3          	add	a5,a5,a0
    1f54:	8dc782e7          	jalr	t0,a5,-1828 # 1828 <get_f32_reg>
    1f58:	00050793          	mv	a5,a0
    1f5c:	0044541b          	srliw	s0,s0,0x4
    1f60:	0f877513          	andi	a0,a4,248
    1f64:	00000717          	auipc	a4,0x0
    1f68:	00a70733          	add	a4,a4,a0
    1f6c:	8c4702e7          	jalr	t0,a4,-1852 # 1828 <get_f32_reg>
    1f70:	00050593          	mv	a1,a0
    1f74:	00078513          	mv	a0,a5
    1f78:	244010ef          	jal	31bc <f32_mul>
    1f7c:	0f847413          	andi	s0,s0,248
    1f80:	00000797          	auipc	a5,0x0
    1f84:	008787b3          	add	a5,a5,s0
    1f88:	9a8782e7          	jalr	t0,a5,-1624 # 1928 <put_f32_reg>
    1f8c:	00813083          	ld	ra,8(sp)
    1f90:	00013403          	ld	s0,0(sp)
    1f94:	01010113          	addi	sp,sp,16
    1f98:	00008067          	ret
    1f9c:	00c7551b          	srliw	a0,a4,0xc
    1fa0:	0f857513          	andi	a0,a0,248
    1fa4:	0117571b          	srliw	a4,a4,0x11
    1fa8:	00000797          	auipc	a5,0x0
    1fac:	00a787b3          	add	a5,a5,a0
    1fb0:	a80782e7          	jalr	t0,a5,-1408 # 1a28 <get_f64_reg>
    1fb4:	00050793          	mv	a5,a0
    1fb8:	0044541b          	srliw	s0,s0,0x4
    1fbc:	0f877513          	andi	a0,a4,248
    1fc0:	00000717          	auipc	a4,0x0
    1fc4:	00a70733          	add	a4,a4,a0
    1fc8:	a68702e7          	jalr	t0,a4,-1432 # 1a28 <get_f64_reg>
    1fcc:	00050593          	mv	a1,a0
    1fd0:	00078513          	mv	a0,a5
    1fd4:	275010ef          	jal	3a48 <f64_mul>
    1fd8:	0f847413          	andi	s0,s0,248
    1fdc:	00000797          	auipc	a5,0x0
    1fe0:	008787b3          	add	a5,a5,s0
    1fe4:	b4c782e7          	jalr	t0,a5,-1204 # 1b28 <put_f64_reg>
    1fe8:	00813083          	ld	ra,8(sp)
    1fec:	00013403          	ld	s0,0(sp)
    1ff0:	01010113          	addi	sp,sp,16
    1ff4:	00008067          	ret

0000000000001ff8 <emulate_fdiv>:
    1ff8:	ff010113          	addi	sp,sp,-16
    1ffc:	0197579b          	srliw	a5,a4,0x19
    2000:	00813023          	sd	s0,0(sp)
    2004:	00113423          	sd	ra,8(sp)
    2008:	0037f793          	andi	a5,a5,3
    200c:	00070413          	mv	s0,a4
    2010:	00078e63          	beqz	a5,202c <emulate_fdiv+0x34>
    2014:	00100813          	li	a6,1
    2018:	07078863          	beq	a5,a6,2088 <emulate_fdiv+0x90>
    201c:	00813083          	ld	ra,8(sp)
    2020:	00013403          	ld	s0,0(sp)
    2024:	01010113          	addi	sp,sp,16
    2028:	c01ff06f          	j	1c28 <truly_illegal_insn>
    202c:	00c7551b          	srliw	a0,a4,0xc
    2030:	0f857513          	andi	a0,a0,248
    2034:	0117571b          	srliw	a4,a4,0x11
    2038:	fffff797          	auipc	a5,0xfffff
    203c:	00a787b3          	add	a5,a5,a0
    2040:	7f0782e7          	jalr	t0,a5,2032 # 1828 <get_f32_reg>
    2044:	00050793          	mv	a5,a0
    2048:	0044541b          	srliw	s0,s0,0x4
    204c:	0f877513          	andi	a0,a4,248
    2050:	fffff717          	auipc	a4,0xfffff
    2054:	00a70733          	add	a4,a4,a0
    2058:	7d8702e7          	jalr	t0,a4,2008 # 1828 <get_f32_reg>
    205c:	00050593          	mv	a1,a0
    2060:	00078513          	mv	a0,a5
    2064:	581000ef          	jal	2de4 <f32_div>
    2068:	0f847413          	andi	s0,s0,248
    206c:	00000797          	auipc	a5,0x0
    2070:	008787b3          	add	a5,a5,s0
    2074:	8bc782e7          	jalr	t0,a5,-1860 # 1928 <put_f32_reg>
    2078:	00813083          	ld	ra,8(sp)
    207c:	00013403          	ld	s0,0(sp)
    2080:	01010113          	addi	sp,sp,16
    2084:	00008067          	ret
    2088:	00c7551b          	srliw	a0,a4,0xc
    208c:	0f857513          	andi	a0,a0,248
    2090:	0117571b          	srliw	a4,a4,0x11
    2094:	00000797          	auipc	a5,0x0
    2098:	00a787b3          	add	a5,a5,a0
    209c:	994782e7          	jalr	t0,a5,-1644 # 1a28 <get_f64_reg>
    20a0:	00050793          	mv	a5,a0
    20a4:	0044541b          	srliw	s0,s0,0x4
    20a8:	0f877513          	andi	a0,a4,248
    20ac:	00000717          	auipc	a4,0x0
    20b0:	00a70733          	add	a4,a4,a0
    20b4:	97c702e7          	jalr	t0,a4,-1668 # 1a28 <get_f64_reg>
    20b8:	00050593          	mv	a1,a0
    20bc:	00078513          	mv	a0,a5
    20c0:	4f4010ef          	jal	35b4 <f64_div>
    20c4:	0f847413          	andi	s0,s0,248
    20c8:	00000797          	auipc	a5,0x0
    20cc:	008787b3          	add	a5,a5,s0
    20d0:	a60782e7          	jalr	t0,a5,-1440 # 1b28 <put_f64_reg>
    20d4:	00813083          	ld	ra,8(sp)
    20d8:	00013403          	ld	s0,0(sp)
    20dc:	01010113          	addi	sp,sp,16
    20e0:	00008067          	ret

00000000000020e4 <emulate_fsqrt>:
    20e4:	0147579b          	srliw	a5,a4,0x14
    20e8:	01f7f793          	andi	a5,a5,31
    20ec:	02079c63          	bnez	a5,2124 <emulate_fsqrt+0x40>
    20f0:	ff010113          	addi	sp,sp,-16
    20f4:	0197579b          	srliw	a5,a4,0x19
    20f8:	00813023          	sd	s0,0(sp)
    20fc:	00113423          	sd	ra,8(sp)
    2100:	0037f793          	andi	a5,a5,3
    2104:	00070413          	mv	s0,a4
    2108:	02078063          	beqz	a5,2128 <emulate_fsqrt+0x44>
    210c:	00100813          	li	a6,1
    2110:	05078a63          	beq	a5,a6,2164 <emulate_fsqrt+0x80>
    2114:	00813083          	ld	ra,8(sp)
    2118:	00013403          	ld	s0,0(sp)
    211c:	01010113          	addi	sp,sp,16
    2120:	b09ff06f          	j	1c28 <truly_illegal_insn>
    2124:	b05ff06f          	j	1c28 <truly_illegal_insn>
    2128:	00c7551b          	srliw	a0,a4,0xc
    212c:	0044541b          	srliw	s0,s0,0x4
    2130:	0f857513          	andi	a0,a0,248
    2134:	0f847413          	andi	s0,s0,248
    2138:	fffff797          	auipc	a5,0xfffff
    213c:	00a787b3          	add	a5,a5,a0
    2140:	6f0782e7          	jalr	t0,a5,1776 # 1828 <get_f32_reg>
    2144:	20c010ef          	jal	3350 <f32_sqrt>
    2148:	fffff797          	auipc	a5,0xfffff
    214c:	008787b3          	add	a5,a5,s0
    2150:	7e0782e7          	jalr	t0,a5,2016 # 1928 <put_f32_reg>
    2154:	00813083          	ld	ra,8(sp)
    2158:	00013403          	ld	s0,0(sp)
    215c:	01010113          	addi	sp,sp,16
    2160:	00008067          	ret
    2164:	00c7551b          	srliw	a0,a4,0xc
    2168:	0044541b          	srliw	s0,s0,0x4
    216c:	0f857513          	andi	a0,a0,248
    2170:	0f847413          	andi	s0,s0,248
    2174:	00000797          	auipc	a5,0x0
    2178:	00a787b3          	add	a5,a5,a0
    217c:	8b4782e7          	jalr	t0,a5,-1868 # 1a28 <get_f64_reg>
    2180:	271010ef          	jal	3bf0 <f64_sqrt>
    2184:	00000797          	auipc	a5,0x0
    2188:	008787b3          	add	a5,a5,s0
    218c:	9a4782e7          	jalr	t0,a5,-1628 # 1b28 <put_f64_reg>
    2190:	00813083          	ld	ra,8(sp)
    2194:	00013403          	ld	s0,0(sp)
    2198:	01010113          	addi	sp,sp,16
    219c:	00008067          	ret

00000000000021a0 <emulate_fsgnj>:
    21a0:	00c7589b          	srliw	a7,a4,0xc
    21a4:	0078f793          	andi	a5,a7,7
    21a8:	00200813          	li	a6,2
    21ac:	00f84c63          	blt	a6,a5,21c4 <emulate_fsgnj+0x24>
    21b0:	0197581b          	srliw	a6,a4,0x19
    21b4:	00387813          	andi	a6,a6,3
    21b8:	00080863          	beqz	a6,21c8 <emulate_fsgnj+0x28>
    21bc:	00100313          	li	t1,1
    21c0:	06680a63          	beq	a6,t1,2234 <emulate_fsgnj+0x94>
    21c4:	a65ff06f          	j	1c28 <truly_illegal_insn>
    21c8:	0117559b          	srliw	a1,a4,0x11
    21cc:	0f88f513          	andi	a0,a7,248
    21d0:	fffff697          	auipc	a3,0xfffff
    21d4:	00a686b3          	add	a3,a3,a0
    21d8:	658682e7          	jalr	t0,a3,1624 # 1828 <get_f32_reg>
    21dc:	00050613          	mv	a2,a0
    21e0:	01f5569b          	srliw	a3,a0,0x1f
    21e4:	0f85f513          	andi	a0,a1,248
    21e8:	4017d59b          	sraiw	a1,a5,0x1
    21ec:	fffff817          	auipc	a6,0xfffff
    21f0:	00a80833          	add	a6,a6,a0
    21f4:	63c802e7          	jalr	t0,a6,1596 # 1828 <get_f32_reg>
    21f8:	01f5551b          	srliw	a0,a0,0x1f
    21fc:	00d5f6b3          	and	a3,a1,a3
    2200:	00f547b3          	xor	a5,a0,a5
    2204:	80000537          	lui	a0,0x80000
    2208:	00d7c7b3          	xor	a5,a5,a3
    220c:	fff54513          	not	a0,a0
    2210:	01f7979b          	slliw	a5,a5,0x1f
    2214:	00a67533          	and	a0,a2,a0
    2218:	0047571b          	srliw	a4,a4,0x4
    221c:	00a7e533          	or	a0,a5,a0
    2220:	0f877713          	andi	a4,a4,248
    2224:	fffff797          	auipc	a5,0xfffff
    2228:	00e787b3          	add	a5,a5,a4
    222c:	704782e7          	jalr	t0,a5,1796 # 1928 <put_f32_reg>
    2230:	00008067          	ret
    2234:	0117559b          	srliw	a1,a4,0x11
    2238:	0f88f513          	andi	a0,a7,248
    223c:	fffff697          	auipc	a3,0xfffff
    2240:	00a686b3          	add	a3,a3,a0
    2244:	7ec682e7          	jalr	t0,a3,2028 # 1a28 <get_f64_reg>
    2248:	00050613          	mv	a2,a0
    224c:	03f55693          	srli	a3,a0,0x3f
    2250:	0f85f513          	andi	a0,a1,248
    2254:	0067d5bb          	srlw	a1,a5,t1
    2258:	fffff817          	auipc	a6,0xfffff
    225c:	00a80833          	add	a6,a6,a0
    2260:	7d0802e7          	jalr	t0,a6,2000 # 1a28 <get_f64_reg>
    2264:	03f55513          	srli	a0,a0,0x3f
    2268:	00d5f6b3          	and	a3,a1,a3
    226c:	00f547b3          	xor	a5,a0,a5
    2270:	fff00513          	li	a0,-1
    2274:	00d7c7b3          	xor	a5,a5,a3
    2278:	00155513          	srli	a0,a0,0x1
    227c:	03f79793          	slli	a5,a5,0x3f
    2280:	00a67533          	and	a0,a2,a0
    2284:	0047571b          	srliw	a4,a4,0x4
    2288:	00a7e533          	or	a0,a5,a0
    228c:	0f877713          	andi	a4,a4,248
    2290:	00000797          	auipc	a5,0x0
    2294:	00e787b3          	add	a5,a5,a4
    2298:	898782e7          	jalr	t0,a5,-1896 # 1b28 <put_f64_reg>
    229c:	00008067          	ret

00000000000022a0 <emulate_fmin>:
    22a0:	00c7589b          	srliw	a7,a4,0xc
    22a4:	0078f813          	andi	a6,a7,7
    22a8:	00100313          	li	t1,1
    22ac:	0b034c63          	blt	t1,a6,2364 <emulate_fmin+0xc4>
    22b0:	fe010113          	addi	sp,sp,-32
    22b4:	0197579b          	srliw	a5,a4,0x19
    22b8:	00813823          	sd	s0,16(sp)
    22bc:	00113c23          	sd	ra,24(sp)
    22c0:	00913423          	sd	s1,8(sp)
    22c4:	01213023          	sd	s2,0(sp)
    22c8:	0037f793          	andi	a5,a5,3
    22cc:	00070413          	mv	s0,a4
    22d0:	06079c63          	bnez	a5,2348 <emulate_fmin+0xa8>
    22d4:	0117579b          	srliw	a5,a4,0x11
    22d8:	0f88f513          	andi	a0,a7,248
    22dc:	fffff717          	auipc	a4,0xfffff
    22e0:	00a70733          	add	a4,a4,a0
    22e4:	54c702e7          	jalr	t0,a4,1356 # 1828 <get_f32_reg>
    22e8:	00050493          	mv	s1,a0
    22ec:	00048593          	mv	a1,s1
    22f0:	0f87f513          	andi	a0,a5,248
    22f4:	fffff797          	auipc	a5,0xfffff
    22f8:	00a787b3          	add	a5,a5,a0
    22fc:	534782e7          	jalr	t0,a5,1332 # 1828 <get_f32_reg>
    2300:	00050913          	mv	s2,a0
    2304:	00081663          	bnez	a6,2310 <emulate_fmin+0x70>
    2308:	00048513          	mv	a0,s1
    230c:	00090593          	mv	a1,s2
    2310:	5e1000ef          	jal	30f0 <f32_lt_quiet>
    2314:	04050a63          	beqz	a0,2368 <emulate_fmin+0xc8>
    2318:	0044541b          	srliw	s0,s0,0x4
    231c:	00048513          	mv	a0,s1
    2320:	0f847413          	andi	s0,s0,248
    2324:	fffff797          	auipc	a5,0xfffff
    2328:	008787b3          	add	a5,a5,s0
    232c:	604782e7          	jalr	t0,a5,1540 # 1928 <put_f32_reg>
    2330:	01813083          	ld	ra,24(sp)
    2334:	01013403          	ld	s0,16(sp)
    2338:	00813483          	ld	s1,8(sp)
    233c:	00013903          	ld	s2,0(sp)
    2340:	02010113          	addi	sp,sp,32
    2344:	00008067          	ret
    2348:	02678a63          	beq	a5,t1,237c <emulate_fmin+0xdc>
    234c:	01813083          	ld	ra,24(sp)
    2350:	01013403          	ld	s0,16(sp)
    2354:	00813483          	ld	s1,8(sp)
    2358:	00013903          	ld	s2,0(sp)
    235c:	02010113          	addi	sp,sp,32
    2360:	8c9ff06f          	j	1c28 <truly_illegal_insn>
    2364:	8c5ff06f          	j	1c28 <truly_illegal_insn>
    2368:	0019179b          	slliw	a5,s2,0x1
    236c:	ff000737          	lui	a4,0xff000
    2370:	faf764e3          	bltu	a4,a5,2318 <emulate_fmin+0x78>
    2374:	00090493          	mv	s1,s2
    2378:	fa1ff06f          	j	2318 <emulate_fmin+0x78>
    237c:	0117579b          	srliw	a5,a4,0x11
    2380:	0f88f513          	andi	a0,a7,248
    2384:	fffff717          	auipc	a4,0xfffff
    2388:	00a70733          	add	a4,a4,a0
    238c:	6a4702e7          	jalr	t0,a4,1700 # 1a28 <get_f64_reg>
    2390:	00050493          	mv	s1,a0
    2394:	00078513          	mv	a0,a5
    2398:	0f857513          	andi	a0,a0,248
    239c:	00048593          	mv	a1,s1
    23a0:	fffff797          	auipc	a5,0xfffff
    23a4:	00a787b3          	add	a5,a5,a0
    23a8:	688782e7          	jalr	t0,a5,1672 # 1a28 <get_f64_reg>
    23ac:	00050913          	mv	s2,a0
    23b0:	00081663          	bnez	a6,23bc <emulate_fmin+0x11c>
    23b4:	00048513          	mv	a0,s1
    23b8:	00090593          	mv	a1,s2
    23bc:	5a4010ef          	jal	3960 <f64_lt_quiet>
    23c0:	00051a63          	bnez	a0,23d4 <emulate_fmin+0x134>
    23c4:	fff00793          	li	a5,-1
    23c8:	00191713          	slli	a4,s2,0x1
    23cc:	03579793          	slli	a5,a5,0x35
    23d0:	02e7fa63          	bleu	a4,a5,2404 <emulate_fmin+0x164>
    23d4:	0044541b          	srliw	s0,s0,0x4
    23d8:	00048513          	mv	a0,s1
    23dc:	0f847413          	andi	s0,s0,248
    23e0:	fffff797          	auipc	a5,0xfffff
    23e4:	008787b3          	add	a5,a5,s0
    23e8:	748782e7          	jalr	t0,a5,1864 # 1b28 <put_f64_reg>
    23ec:	01813083          	ld	ra,24(sp)
    23f0:	01013403          	ld	s0,16(sp)
    23f4:	00813483          	ld	s1,8(sp)
    23f8:	00013903          	ld	s2,0(sp)
    23fc:	02010113          	addi	sp,sp,32
    2400:	00008067          	ret
    2404:	00090493          	mv	s1,s2
    2408:	fcdff06f          	j	23d4 <emulate_fmin+0x134>

000000000000240c <emulate_fcvt_ff>:
    240c:	fe010113          	addi	sp,sp,-32
    2410:	0197579b          	srliw	a5,a4,0x19
    2414:	0147581b          	srliw	a6,a4,0x14
    2418:	00113c23          	sd	ra,24(sp)
    241c:	0037f793          	andi	a5,a5,3
    2420:	01f87813          	andi	a6,a6,31
    2424:	00079c63          	bnez	a5,243c <emulate_fcvt_ff+0x30>
    2428:	00100793          	li	a5,1
    242c:	04f80e63          	beq	a6,a5,2488 <emulate_fcvt_ff+0x7c>
    2430:	01813083          	ld	ra,24(sp)
    2434:	02010113          	addi	sp,sp,32
    2438:	ff0ff06f          	j	1c28 <truly_illegal_insn>
    243c:	00100893          	li	a7,1
    2440:	ff1798e3          	bne	a5,a7,2430 <emulate_fcvt_ff+0x24>
    2444:	fe0816e3          	bnez	a6,2430 <emulate_fcvt_ff+0x24>
    2448:	00c7551b          	srliw	a0,a4,0xc
    244c:	00e13423          	sd	a4,8(sp)
    2450:	0f857513          	andi	a0,a0,248
    2454:	fffff797          	auipc	a5,0xfffff
    2458:	00a787b3          	add	a5,a5,a0
    245c:	3d4782e7          	jalr	t0,a5,980 # 1828 <get_f32_reg>
    2460:	05c010ef          	jal	34bc <f32_to_f64>
    2464:	00813703          	ld	a4,8(sp)
    2468:	0047571b          	srliw	a4,a4,0x4
    246c:	0f877713          	andi	a4,a4,248
    2470:	fffff797          	auipc	a5,0xfffff
    2474:	00e787b3          	add	a5,a5,a4
    2478:	6b8782e7          	jalr	t0,a5,1720 # 1b28 <put_f64_reg>
    247c:	01813083          	ld	ra,24(sp)
    2480:	02010113          	addi	sp,sp,32
    2484:	00008067          	ret
    2488:	00c7551b          	srliw	a0,a4,0xc
    248c:	00e13423          	sd	a4,8(sp)
    2490:	0f857513          	andi	a0,a0,248
    2494:	fffff797          	auipc	a5,0xfffff
    2498:	00a787b3          	add	a5,a5,a0
    249c:	594782e7          	jalr	t0,a5,1428 # 1a28 <get_f64_reg>
    24a0:	105010ef          	jal	3da4 <f64_to_f32>
    24a4:	00813703          	ld	a4,8(sp)
    24a8:	0047571b          	srliw	a4,a4,0x4
    24ac:	0f877713          	andi	a4,a4,248
    24b0:	fffff797          	auipc	a5,0xfffff
    24b4:	00e787b3          	add	a5,a5,a4
    24b8:	478782e7          	jalr	t0,a5,1144 # 1928 <put_f32_reg>
    24bc:	01813083          	ld	ra,24(sp)
    24c0:	02010113          	addi	sp,sp,32
    24c4:	00008067          	ret

00000000000024c8 <emulate_fcvt_fi>:
    24c8:	fe010113          	addi	sp,sp,-32
    24cc:	00913423          	sd	s1,8(sp)
    24d0:	0197549b          	srliw	s1,a4,0x19
    24d4:	00113c23          	sd	ra,24(sp)
    24d8:	00813823          	sd	s0,16(sp)
    24dc:	01213023          	sd	s2,0(sp)
    24e0:	0034f493          	andi	s1,s1,3
    24e4:	00100893          	li	a7,1
    24e8:	0698e863          	bltu	a7,s1,2558 <emulate_fcvt_fi+0x90>
    24ec:	00c7531b          	srliw	t1,a4,0xc
    24f0:	0f837313          	andi	t1,t1,248
    24f4:	0147579b          	srliw	a5,a4,0x14
    24f8:	00650833          	add	a6,a0,t1
    24fc:	01f7f793          	andi	a5,a5,31
    2500:	00070413          	mv	s0,a4
    2504:	00083803          	ld	a6,0(a6)
    2508:	07178463          	beq	a5,a7,2570 <emulate_fcvt_fi+0xa8>
    250c:	08078e63          	beqz	a5,25a8 <emulate_fcvt_fi+0xe0>
    2510:	00200893          	li	a7,2
    2514:	07178863          	beq	a5,a7,2584 <emulate_fcvt_fi+0xbc>
    2518:	00300893          	li	a7,3
    251c:	03179e63          	bne	a5,a7,2558 <emulate_fcvt_fi+0x90>
    2520:	00080513          	mv	a0,a6
    2524:	028030ef          	jal	554c <ui64_to_f64>
    2528:	08048c63          	beqz	s1,25c0 <emulate_fcvt_fi+0xf8>
    252c:	0044579b          	srliw	a5,s0,0x4
    2530:	0f87f793          	andi	a5,a5,248
    2534:	fffff717          	auipc	a4,0xfffff
    2538:	00f70733          	add	a4,a4,a5
    253c:	5f4702e7          	jalr	t0,a4,1524 # 1b28 <put_f64_reg>
    2540:	01813083          	ld	ra,24(sp)
    2544:	01013403          	ld	s0,16(sp)
    2548:	00813483          	ld	s1,8(sp)
    254c:	00013903          	ld	s2,0(sp)
    2550:	02010113          	addi	sp,sp,32
    2554:	00008067          	ret
    2558:	01813083          	ld	ra,24(sp)
    255c:	01013403          	ld	s0,16(sp)
    2560:	00813483          	ld	s1,8(sp)
    2564:	00013903          	ld	s2,0(sp)
    2568:	02010113          	addi	sp,sp,32
    256c:	ebcff06f          	j	1c28 <truly_illegal_insn>
    2570:	02081813          	slli	a6,a6,0x20
    2574:	02085813          	srli	a6,a6,0x20
    2578:	00080513          	mv	a0,a6
    257c:	7d1020ef          	jal	554c <ui64_to_f64>
    2580:	fa9ff06f          	j	2528 <emulate_fcvt_fi+0x60>
    2584:	03f85913          	srli	s2,a6,0x3f
    2588:	04084a63          	bltz	a6,25dc <emulate_fcvt_fi+0x114>
    258c:	00080513          	mv	a0,a6
    2590:	7bd020ef          	jal	554c <ui64_to_f64>
    2594:	f8090ae3          	beqz	s2,2528 <emulate_fcvt_fi+0x60>
    2598:	fff00793          	li	a5,-1
    259c:	03f79793          	slli	a5,a5,0x3f
    25a0:	00f54533          	xor	a0,a0,a5
    25a4:	f85ff06f          	j	2528 <emulate_fcvt_fi+0x60>
    25a8:	0008079b          	sext.w	a5,a6
    25ac:	01f7d91b          	srliw	s2,a5,0x1f
    25b0:	00078813          	mv	a6,a5
    25b4:	fc07dce3          	bgez	a5,258c <emulate_fcvt_fi+0xc4>
    25b8:	40f0083b          	negw	a6,a5
    25bc:	fd1ff06f          	j	258c <emulate_fcvt_fi+0xc4>
    25c0:	7e4010ef          	jal	3da4 <f64_to_f32>
    25c4:	0044579b          	srliw	a5,s0,0x4
    25c8:	0f87f793          	andi	a5,a5,248
    25cc:	fffff717          	auipc	a4,0xfffff
    25d0:	00f70733          	add	a4,a4,a5
    25d4:	35c702e7          	jalr	t0,a4,860 # 1928 <put_f32_reg>
    25d8:	f69ff06f          	j	2540 <emulate_fcvt_fi+0x78>
    25dc:	41000833          	neg	a6,a6
    25e0:	fadff06f          	j	258c <emulate_fcvt_fi+0xc4>

00000000000025e4 <emulate_fcvt_if>:
    25e4:	fd010113          	addi	sp,sp,-48
    25e8:	00913c23          	sd	s1,24(sp)
    25ec:	0147549b          	srliw	s1,a4,0x14
    25f0:	02113423          	sd	ra,40(sp)
    25f4:	02813023          	sd	s0,32(sp)
    25f8:	01213823          	sd	s2,16(sp)
    25fc:	01313423          	sd	s3,8(sp)
    2600:	01413023          	sd	s4,0(sp)
    2604:	01f4f493          	andi	s1,s1,31
    2608:	00300793          	li	a5,3
    260c:	0a97c663          	blt	a5,s1,26b8 <emulate_fcvt_if+0xd4>
    2610:	0197579b          	srliw	a5,a4,0x19
    2614:	0037f793          	andi	a5,a5,3
    2618:	00050913          	mv	s2,a0
    261c:	00070413          	mv	s0,a4
    2620:	0a078c63          	beqz	a5,26d8 <emulate_fcvt_if+0xf4>
    2624:	00100813          	li	a6,1
    2628:	09079863          	bne	a5,a6,26b8 <emulate_fcvt_if+0xd4>
    262c:	00c7551b          	srliw	a0,a4,0xc
    2630:	0f857513          	andi	a0,a0,248
    2634:	fffff797          	auipc	a5,0xfffff
    2638:	00a787b3          	add	a5,a5,a0
    263c:	3f4782e7          	jalr	t0,a5,1012 # 1a28 <get_f64_reg>
    2640:	0a054a63          	bltz	a0,26f4 <emulate_fcvt_if+0x110>
    2644:	00100613          	li	a2,1
    2648:	00020593          	mv	a1,tp
    264c:	029010ef          	jal	3e74 <f64_to_ui64>
    2650:	00200793          	li	a5,2
    2654:	0ef48e63          	beq	s1,a5,2750 <emulate_fcvt_if+0x16c>
    2658:	00300713          	li	a4,3
    265c:	00050793          	mv	a5,a0
    2660:	02e48463          	beq	s1,a4,2688 <emulate_fcvt_if+0xa4>
    2664:	00100793          	li	a5,1
    2668:	0cf48863          	beq	s1,a5,2738 <emulate_fcvt_if+0x154>
    266c:	80000737          	lui	a4,0x80000
    2670:	fff74713          	not	a4,a4
    2674:	0005079b          	sext.w	a5,a0
    2678:	00070693          	mv	a3,a4
    267c:	00a6f663          	bleu	a0,a3,2688 <emulate_fcvt_if+0xa4>
    2680:	001867f3          	csrrs	a5,fflags,16
    2684:	00070793          	mv	a5,a4
    2688:	0044541b          	srliw	s0,s0,0x4
    268c:	02813083          	ld	ra,40(sp)
    2690:	0f847413          	andi	s0,s0,248
    2694:	00890433          	add	s0,s2,s0
    2698:	00f43023          	sd	a5,0(s0)
    269c:	01813483          	ld	s1,24(sp)
    26a0:	02013403          	ld	s0,32(sp)
    26a4:	01013903          	ld	s2,16(sp)
    26a8:	00813983          	ld	s3,8(sp)
    26ac:	00013a03          	ld	s4,0(sp)
    26b0:	03010113          	addi	sp,sp,48
    26b4:	00008067          	ret
    26b8:	02813083          	ld	ra,40(sp)
    26bc:	02013403          	ld	s0,32(sp)
    26c0:	01813483          	ld	s1,24(sp)
    26c4:	01013903          	ld	s2,16(sp)
    26c8:	00813983          	ld	s3,8(sp)
    26cc:	00013a03          	ld	s4,0(sp)
    26d0:	03010113          	addi	sp,sp,48
    26d4:	d54ff06f          	j	1c28 <truly_illegal_insn>
    26d8:	00c7551b          	srliw	a0,a4,0xc
    26dc:	0f857513          	andi	a0,a0,248
    26e0:	fffff797          	auipc	a5,0xfffff
    26e4:	00a787b3          	add	a5,a5,a0
    26e8:	148782e7          	jalr	t0,a5,328 # 1828 <get_f32_reg>
    26ec:	5d1000ef          	jal	34bc <f32_to_f64>
    26f0:	f4055ae3          	bgez	a0,2644 <emulate_fcvt_if+0x60>
    26f4:	fff00a13          	li	s4,-1
    26f8:	03fa1993          	slli	s3,s4,0x3f
    26fc:	00100613          	li	a2,1
    2700:	00020593          	mv	a1,tp
    2704:	01354533          	xor	a0,a0,s3
    2708:	76c010ef          	jal	3e74 <f64_to_ui64>
    270c:	00200793          	li	a5,2
    2710:	04f48a63          	beq	s1,a5,2764 <emulate_fcvt_if+0x180>
    2714:	00300793          	li	a5,3
    2718:	04f48e63          	beq	s1,a5,2774 <emulate_fcvt_if+0x190>
    271c:	00100793          	li	a5,1
    2720:	06f48263          	beq	s1,a5,2784 <emulate_fcvt_if+0x1a0>
    2724:	00100713          	li	a4,1
    2728:	01f71713          	slli	a4,a4,0x1f
    272c:	40a007bb          	negw	a5,a0
    2730:	00070693          	mv	a3,a4
    2734:	f49ff06f          	j	267c <emulate_fcvt_if+0x98>
    2738:	fff00793          	li	a5,-1
    273c:	0207d793          	srli	a5,a5,0x20
    2740:	00078713          	mv	a4,a5
    2744:	00070693          	mv	a3,a4
    2748:	00f577b3          	and	a5,a0,a5
    274c:	f31ff06f          	j	267c <emulate_fcvt_if+0x98>
    2750:	fff00713          	li	a4,-1
    2754:	00175713          	srli	a4,a4,0x1
    2758:	00050793          	mv	a5,a0
    275c:	00070693          	mv	a3,a4
    2760:	f1dff06f          	j	267c <emulate_fcvt_if+0x98>
    2764:	00098713          	mv	a4,s3
    2768:	40a007b3          	neg	a5,a0
    276c:	00098693          	mv	a3,s3
    2770:	f0dff06f          	j	267c <emulate_fcvt_if+0x98>
    2774:	000a0713          	mv	a4,s4
    2778:	00000693          	li	a3,0
    277c:	00000793          	li	a5,0
    2780:	efdff06f          	j	267c <emulate_fcvt_if+0x98>
    2784:	020a5713          	srli	a4,s4,0x20
    2788:	00000693          	li	a3,0
    278c:	00000793          	li	a5,0
    2790:	eedff06f          	j	267c <emulate_fcvt_if+0x98>

0000000000002794 <emulate_fcmp>:
    2794:	fd010113          	addi	sp,sp,-48
    2798:	00c7581b          	srliw	a6,a4,0xc
    279c:	00913c23          	sd	s1,24(sp)
    27a0:	02113423          	sd	ra,40(sp)
    27a4:	02813023          	sd	s0,32(sp)
    27a8:	01213823          	sd	s2,16(sp)
    27ac:	01313423          	sd	s3,8(sp)
    27b0:	01413023          	sd	s4,0(sp)
    27b4:	00787493          	andi	s1,a6,7
    27b8:	00200793          	li	a5,2
    27bc:	0e97ce63          	blt	a5,s1,28b8 <emulate_fcmp+0x124>
    27c0:	0197579b          	srliw	a5,a4,0x19
    27c4:	0037f793          	andi	a5,a5,3
    27c8:	00050913          	mv	s2,a0
    27cc:	00070413          	mv	s0,a4
    27d0:	08079463          	bnez	a5,2858 <emulate_fcmp+0xc4>
    27d4:	0117579b          	srliw	a5,a4,0x11
    27d8:	0f887513          	andi	a0,a6,248
    27dc:	fffff717          	auipc	a4,0xfffff
    27e0:	00a70733          	add	a4,a4,a0
    27e4:	04c702e7          	jalr	t0,a4,76 # 1828 <get_f32_reg>
    27e8:	00050993          	mv	s3,a0
    27ec:	0f87f513          	andi	a0,a5,248
    27f0:	fffff797          	auipc	a5,0xfffff
    27f4:	00a787b3          	add	a5,a5,a0
    27f8:	038782e7          	jalr	t0,a5,56 # 1828 <get_f32_reg>
    27fc:	00100793          	li	a5,1
    2800:	00050a13          	mv	s4,a0
    2804:	00f48c63          	beq	s1,a5,281c <emulate_fcmp+0x88>
    2808:	00050593          	mv	a1,a0
    280c:	00098513          	mv	a0,s3
    2810:	79c000ef          	jal	2fac <f32_eq>
    2814:	00049a63          	bnez	s1,2828 <emulate_fcmp+0x94>
    2818:	0c051063          	bnez	a0,28d8 <emulate_fcmp+0x144>
    281c:	000a0593          	mv	a1,s4
    2820:	00098513          	mv	a0,s3
    2824:	039000ef          	jal	305c <f32_lt>
    2828:	0044541b          	srliw	s0,s0,0x4
    282c:	02813083          	ld	ra,40(sp)
    2830:	0f847413          	andi	s0,s0,248
    2834:	00890433          	add	s0,s2,s0
    2838:	00a43023          	sd	a0,0(s0)
    283c:	01813483          	ld	s1,24(sp)
    2840:	02013403          	ld	s0,32(sp)
    2844:	01013903          	ld	s2,16(sp)
    2848:	00813983          	ld	s3,8(sp)
    284c:	00013a03          	ld	s4,0(sp)
    2850:	03010113          	addi	sp,sp,48
    2854:	00008067          	ret
    2858:	00100893          	li	a7,1
    285c:	05179e63          	bne	a5,a7,28b8 <emulate_fcmp+0x124>
    2860:	0117571b          	srliw	a4,a4,0x11
    2864:	0f887513          	andi	a0,a6,248
    2868:	fffff697          	auipc	a3,0xfffff
    286c:	00a686b3          	add	a3,a3,a0
    2870:	1c0682e7          	jalr	t0,a3,448 # 1a28 <get_f64_reg>
    2874:	00050993          	mv	s3,a0
    2878:	00070513          	mv	a0,a4
    287c:	0f857513          	andi	a0,a0,248
    2880:	fffff717          	auipc	a4,0xfffff
    2884:	00a70733          	add	a4,a4,a0
    2888:	1a8702e7          	jalr	t0,a4,424 # 1a28 <get_f64_reg>
    288c:	00050a13          	mv	s4,a0
    2890:	00f48c63          	beq	s1,a5,28a8 <emulate_fcmp+0x114>
    2894:	00050593          	mv	a1,a0
    2898:	00098513          	mv	a0,s3
    289c:	761000ef          	jal	37fc <f64_eq>
    28a0:	f80494e3          	bnez	s1,2828 <emulate_fcmp+0x94>
    28a4:	02051a63          	bnez	a0,28d8 <emulate_fcmp+0x144>
    28a8:	000a0593          	mv	a1,s4
    28ac:	00098513          	mv	a0,s3
    28b0:	01c010ef          	jal	38cc <f64_lt>
    28b4:	f75ff06f          	j	2828 <emulate_fcmp+0x94>
    28b8:	02813083          	ld	ra,40(sp)
    28bc:	02013403          	ld	s0,32(sp)
    28c0:	01813483          	ld	s1,24(sp)
    28c4:	01013903          	ld	s2,16(sp)
    28c8:	00813983          	ld	s3,8(sp)
    28cc:	00013a03          	ld	s4,0(sp)
    28d0:	03010113          	addi	sp,sp,48
    28d4:	b54ff06f          	j	1c28 <truly_illegal_insn>
    28d8:	00100513          	li	a0,1
    28dc:	f4dff06f          	j	2828 <emulate_fcmp+0x94>

00000000000028e0 <emulate_fmv_if>:
    28e0:	fff077b7          	lui	a5,0xfff07
    28e4:	07f7879b          	addiw	a5,a5,127
    28e8:	e00008b7          	lui	a7,0xe0000
    28ec:	00f777b3          	and	a5,a4,a5
    28f0:	0538889b          	addiw	a7,a7,83
    28f4:	00070813          	mv	a6,a4
    28f8:	00050313          	mv	t1,a0
    28fc:	03178e63          	beq	a5,a7,2938 <emulate_fmv_if+0x58>
    2900:	e20008b7          	lui	a7,0xe2000
    2904:	0538889b          	addiw	a7,a7,83
    2908:	03179663          	bne	a5,a7,2934 <emulate_fmv_if+0x54>
    290c:	0048581b          	srliw	a6,a6,0x4
    2910:	0f887813          	andi	a6,a6,248
    2914:	00c7551b          	srliw	a0,a4,0xc
    2918:	01030833          	add	a6,t1,a6
    291c:	0f857513          	andi	a0,a0,248
    2920:	fffff797          	auipc	a5,0xfffff
    2924:	00a787b3          	add	a5,a5,a0
    2928:	108782e7          	jalr	t0,a5,264 # 1a28 <get_f64_reg>
    292c:	00a83023          	sd	a0,0(a6)
    2930:	00008067          	ret
    2934:	af4ff06f          	j	1c28 <truly_illegal_insn>
    2938:	0048581b          	srliw	a6,a6,0x4
    293c:	0f887813          	andi	a6,a6,248
    2940:	00c7551b          	srliw	a0,a4,0xc
    2944:	01030833          	add	a6,t1,a6
    2948:	0f857513          	andi	a0,a0,248
    294c:	fffff797          	auipc	a5,0xfffff
    2950:	00a787b3          	add	a5,a5,a0
    2954:	edc782e7          	jalr	t0,a5,-292 # 1828 <get_f32_reg>
    2958:	00a83023          	sd	a0,0(a6)
    295c:	00008067          	ret

0000000000002960 <emulate_fmv_fi>:
    2960:	00c7581b          	srliw	a6,a4,0xc
    2964:	0f887813          	andi	a6,a6,248
    2968:	01050833          	add	a6,a0,a6
    296c:	fff077b7          	lui	a5,0xfff07
    2970:	07f7879b          	addiw	a5,a5,127
    2974:	00083303          	ld	t1,0(a6)
    2978:	f0000837          	lui	a6,0xf0000
    297c:	00f777b3          	and	a5,a4,a5
    2980:	0538081b          	addiw	a6,a6,83
    2984:	03078863          	beq	a5,a6,29b4 <emulate_fmv_fi+0x54>
    2988:	f2000837          	lui	a6,0xf2000
    298c:	0538081b          	addiw	a6,a6,83
    2990:	01078463          	beq	a5,a6,2998 <emulate_fmv_fi+0x38>
    2994:	a94ff06f          	j	1c28 <truly_illegal_insn>
    2998:	0047589b          	srliw	a7,a4,0x4
    299c:	00030513          	mv	a0,t1
    29a0:	0f88f893          	andi	a7,a7,248
    29a4:	fffff797          	auipc	a5,0xfffff
    29a8:	011787b3          	add	a5,a5,a7
    29ac:	184782e7          	jalr	t0,a5,388 # 1b28 <put_f64_reg>
    29b0:	00008067          	ret
    29b4:	0047589b          	srliw	a7,a4,0x4
    29b8:	0003051b          	sext.w	a0,t1
    29bc:	0f88f893          	andi	a7,a7,248
    29c0:	fffff797          	auipc	a5,0xfffff
    29c4:	011787b3          	add	a5,a5,a7
    29c8:	f68782e7          	jalr	t0,a5,-152 # 1928 <put_f32_reg>
    29cc:	00008067          	ret

00000000000029d0 <emulate_fmadd>:
    29d0:	ff010113          	addi	sp,sp,-16
    29d4:	000067b7          	lui	a5,0x6
    29d8:	00113423          	sd	ra,8(sp)
    29dc:	00813023          	sd	s0,0(sp)
    29e0:	00f6f7b3          	and	a5,a3,a5
    29e4:	02078a63          	beqz	a5,2a18 <emulate_fmadd+0x48>
    29e8:	0027579b          	srliw	a5,a4,0x2
    29ec:	0037f893          	andi	a7,a5,3
    29f0:	00202273          	frrm	tp
    29f4:	000077b7          	lui	a5,0x7
    29f8:	00f77833          	and	a6,a4,a5
    29fc:	10f81a63          	bne	a6,a5,2b10 <emulate_fmadd+0x140>
    2a00:	00070413          	mv	s0,a4
    2a04:	0197579b          	srliw	a5,a4,0x19
    2a08:	0037f793          	andi	a5,a5,3
    2a0c:	00078e63          	beqz	a5,2a28 <emulate_fmadd+0x58>
    2a10:	00100813          	li	a6,1
    2a14:	09078463          	beq	a5,a6,2a9c <emulate_fmadd+0xcc>
    2a18:	00813083          	ld	ra,8(sp)
    2a1c:	00013403          	ld	s0,0(sp)
    2a20:	01010113          	addi	sp,sp,16
    2a24:	a04ff06f          	j	1c28 <truly_illegal_insn>
    2a28:	0184579b          	srliw	a5,s0,0x18
    2a2c:	00c7551b          	srliw	a0,a4,0xc
    2a30:	0117571b          	srliw	a4,a4,0x11
    2a34:	0f857513          	andi	a0,a0,248
    2a38:	0044541b          	srliw	s0,s0,0x4
    2a3c:	fffff697          	auipc	a3,0xfffff
    2a40:	00a686b3          	add	a3,a3,a0
    2a44:	dec682e7          	jalr	t0,a3,-532 # 1828 <get_f32_reg>
    2a48:	00050593          	mv	a1,a0
    2a4c:	0f877513          	andi	a0,a4,248
    2a50:	fffff717          	auipc	a4,0xfffff
    2a54:	00a70733          	add	a4,a4,a0
    2a58:	dd8702e7          	jalr	t0,a4,-552 # 1828 <get_f32_reg>
    2a5c:	00050613          	mv	a2,a0
    2a60:	0f87f513          	andi	a0,a5,248
    2a64:	fffff797          	auipc	a5,0xfffff
    2a68:	00a787b3          	add	a5,a5,a0
    2a6c:	dc4782e7          	jalr	t0,a5,-572 # 1828 <get_f32_reg>
    2a70:	00050693          	mv	a3,a0
    2a74:	00088513          	mv	a0,a7
    2a78:	239010ef          	jal	44b0 <softfloat_mulAddF32>
    2a7c:	0f847413          	andi	s0,s0,248
    2a80:	fffff797          	auipc	a5,0xfffff
    2a84:	008787b3          	add	a5,a5,s0
    2a88:	ea8782e7          	jalr	t0,a5,-344 # 1928 <put_f32_reg>
    2a8c:	00813083          	ld	ra,8(sp)
    2a90:	00013403          	ld	s0,0(sp)
    2a94:	01010113          	addi	sp,sp,16
    2a98:	00008067          	ret
    2a9c:	0184579b          	srliw	a5,s0,0x18
    2aa0:	00c7551b          	srliw	a0,a4,0xc
    2aa4:	0117571b          	srliw	a4,a4,0x11
    2aa8:	0f857513          	andi	a0,a0,248
    2aac:	0044541b          	srliw	s0,s0,0x4
    2ab0:	fffff697          	auipc	a3,0xfffff
    2ab4:	00a686b3          	add	a3,a3,a0
    2ab8:	f78682e7          	jalr	t0,a3,-136 # 1a28 <get_f64_reg>
    2abc:	00050593          	mv	a1,a0
    2ac0:	0f877513          	andi	a0,a4,248
    2ac4:	fffff717          	auipc	a4,0xfffff
    2ac8:	00a70733          	add	a4,a4,a0
    2acc:	f64702e7          	jalr	t0,a4,-156 # 1a28 <get_f64_reg>
    2ad0:	00050613          	mv	a2,a0
    2ad4:	0f87f513          	andi	a0,a5,248
    2ad8:	fffff797          	auipc	a5,0xfffff
    2adc:	00a787b3          	add	a5,a5,a0
    2ae0:	f50782e7          	jalr	t0,a5,-176 # 1a28 <get_f64_reg>
    2ae4:	00050693          	mv	a3,a0
    2ae8:	00088513          	mv	a0,a7
    2aec:	525010ef          	jal	4810 <softfloat_mulAddF64>
    2af0:	0f847413          	andi	s0,s0,248
    2af4:	fffff797          	auipc	a5,0xfffff
    2af8:	008787b3          	add	a5,a5,s0
    2afc:	034782e7          	jalr	t0,a5,52 # 1b28 <put_f64_reg>
    2b00:	00813083          	ld	ra,8(sp)
    2b04:	00013403          	ld	s0,0(sp)
    2b08:	01010113          	addi	sp,sp,16
    2b0c:	00008067          	ret
    2b10:	00c7579b          	srliw	a5,a4,0xc
    2b14:	0077f793          	andi	a5,a5,7
    2b18:	00400813          	li	a6,4
    2b1c:	eef86ee3          	bltu	a6,a5,2a18 <emulate_fmadd+0x48>
    2b20:	02079213          	slli	tp,a5,0x20
    2b24:	02025213          	srli	tp,tp,0x20
    2b28:	ed9ff06f          	j	2a00 <emulate_fmadd+0x30>

0000000000002b2c <misaligned_load_trap>:
    2b2c:	000207b7          	lui	a5,0x20
    2b30:	3007a6f3          	csrrs	a3,mstatus,a5
    2b34:	00062703          	lw	a4,0(a2)
    2b38:	30069073          	csrw	mstatus,a3
    2b3c:	00c7579b          	srliw	a5,a4,0xc
    2b40:	0f87f793          	andi	a5,a5,248
    2b44:	00a787b3          	add	a5,a5,a0
    2b48:	0007b803          	ld	a6,0(a5) # 20000 <_sbi_end+0x18000>
    2b4c:	00007337          	lui	t1,0x7
    2b50:	4147579b          	sraiw	a5,a4,0x14
    2b54:	07f3031b          	addiw	t1,t1,127
    2b58:	01078833          	add	a6,a5,a6
    2b5c:	000027b7          	lui	a5,0x2
    2b60:	00677333          	and	t1,a4,t1
    2b64:	0037879b          	addiw	a5,a5,3
    2b68:	ff010113          	addi	sp,sp,-16
    2b6c:	00050e13          	mv	t3,a0
    2b70:	00060893          	mv	a7,a2
    2b74:	0af30063          	beq	t1,a5,2c14 <misaligned_load_trap+0xe8>
    2b78:	000037b7          	lui	a5,0x3
    2b7c:	0037879b          	addiw	a5,a5,3
    2b80:	0af30063          	beq	t1,a5,2c20 <misaligned_load_trap+0xf4>
    2b84:	000067b7          	lui	a5,0x6
    2b88:	0037879b          	addiw	a5,a5,3
    2b8c:	0af30063          	beq	t1,a5,2c2c <misaligned_load_trap+0x100>
    2b90:	000017b7          	lui	a5,0x1
    2b94:	0037879b          	addiw	a5,a5,3
    2b98:	0af30463          	beq	t1,a5,2c40 <misaligned_load_trap+0x114>
    2b9c:	00005f37          	lui	t5,0x5
    2ba0:	003f0f1b          	addiw	t5,t5,3
    2ba4:	00100793          	li	a5,1
    2ba8:	00000e93          	li	t4,0
    2bac:	09e31663          	bne	t1,t5,2c38 <misaligned_load_trap+0x10c>
    2bb0:	00810613          	addi	a2,sp,8
    2bb4:	00013423          	sd	zero,8(sp)
    2bb8:	00f607b3          	add	a5,a2,a5
    2bbc:	00710313          	addi	t1,sp,7
    2bc0:	40c80833          	sub	a6,a6,a2
    2bc4:	00020537          	lui	a0,0x20
    2bc8:	00f805b3          	add	a1,a6,a5
    2bcc:	fff78793          	addi	a5,a5,-1 # fff <hls_init+0x43>
    2bd0:	00088613          	mv	a2,a7
    2bd4:	300526f3          	csrrs	a3,mstatus,a0
    2bd8:	0005cf03          	lbu	t5,0(a1)
    2bdc:	30069073          	csrw	mstatus,a3
    2be0:	01e780a3          	sb	t5,1(a5)
    2be4:	fef312e3          	bne	t1,a5,2bc8 <misaligned_load_trap+0x9c>
    2be8:	00813783          	ld	a5,8(sp)
    2bec:	0047571b          	srliw	a4,a4,0x4
    2bf0:	0f877713          	andi	a4,a4,248
    2bf4:	01d797b3          	sll	a5,a5,t4
    2bf8:	00ee0733          	add	a4,t3,a4
    2bfc:	41d7d7b3          	sra	a5,a5,t4
    2c00:	00f73023          	sd	a5,0(a4)
    2c04:	00488893          	addi	a7,a7,4 # ffffffffe2000004 <_end+0xffffffffe17be094>
    2c08:	34189073          	csrw	mepc,a7
    2c0c:	01010113          	addi	sp,sp,16
    2c10:	00008067          	ret
    2c14:	00300793          	li	a5,3
    2c18:	02000e93          	li	t4,32
    2c1c:	f95ff06f          	j	2bb0 <misaligned_load_trap+0x84>
    2c20:	00700793          	li	a5,7
    2c24:	00000e93          	li	t4,0
    2c28:	f89ff06f          	j	2bb0 <misaligned_load_trap+0x84>
    2c2c:	00300793          	li	a5,3
    2c30:	00000e93          	li	t4,0
    2c34:	f7dff06f          	j	2bb0 <misaligned_load_trap+0x84>
    2c38:	01010113          	addi	sp,sp,16
    2c3c:	fedfe06f          	j	1c28 <truly_illegal_insn>
    2c40:	00100793          	li	a5,1
    2c44:	03000e93          	li	t4,48
    2c48:	f69ff06f          	j	2bb0 <misaligned_load_trap+0x84>

0000000000002c4c <misaligned_store_trap>:
    2c4c:	000207b7          	lui	a5,0x20
    2c50:	3007a6f3          	csrrs	a3,mstatus,a5
    2c54:	00062703          	lw	a4,0(a2)
    2c58:	30069073          	csrw	mstatus,a3
    2c5c:	0117579b          	srliw	a5,a4,0x11
    2c60:	0f87f793          	andi	a5,a5,248
    2c64:	00a787b3          	add	a5,a5,a0
    2c68:	0007b783          	ld	a5,0(a5) # 20000 <_sbi_end+0x18000>
    2c6c:	ff010113          	addi	sp,sp,-16
    2c70:	000028b7          	lui	a7,0x2
    2c74:	00f13423          	sd	a5,8(sp)
    2c78:	000077b7          	lui	a5,0x7
    2c7c:	07f7879b          	addiw	a5,a5,127
    2c80:	00f777b3          	and	a5,a4,a5
    2c84:	0238889b          	addiw	a7,a7,35
    2c88:	00050313          	mv	t1,a0
    2c8c:	00060813          	mv	a6,a2
    2c90:	0b178063          	beq	a5,a7,2d30 <misaligned_store_trap+0xe4>
    2c94:	000038b7          	lui	a7,0x3
    2c98:	0238889b          	addiw	a7,a7,35
    2c9c:	09178e63          	beq	a5,a7,2d38 <misaligned_store_trap+0xec>
    2ca0:	00001e37          	lui	t3,0x1
    2ca4:	023e0e1b          	addiw	t3,t3,35
    2ca8:	00200893          	li	a7,2
    2cac:	07c79e63          	bne	a5,t3,2d28 <misaligned_store_trap+0xdc>
    2cb0:	00c7561b          	srliw	a2,a4,0xc
    2cb4:	0f867613          	andi	a2,a2,248
    2cb8:	4197579b          	sraiw	a5,a4,0x19
    2cbc:	00c30333          	add	t1,t1,a2
    2cc0:	0077571b          	srliw	a4,a4,0x7
    2cc4:	0057961b          	slliw	a2,a5,0x5
    2cc8:	fff8889b          	addiw	a7,a7,-1
    2ccc:	01f77793          	andi	a5,a4,31
    2cd0:	00033703          	ld	a4,0(t1) # 7000 <sbi_base>
    2cd4:	02089893          	slli	a7,a7,0x20
    2cd8:	00f667b3          	or	a5,a2,a5
    2cdc:	0208d893          	srli	a7,a7,0x20
    2ce0:	00e78733          	add	a4,a5,a4
    2ce4:	00188893          	addi	a7,a7,1 # 3001 <f32_eq+0x55>
    2ce8:	00810793          	addi	a5,sp,8
    2cec:	011788b3          	add	a7,a5,a7
    2cf0:	40f70733          	sub	a4,a4,a5
    2cf4:	00020337          	lui	t1,0x20
    2cf8:	0007c583          	lbu	a1,0(a5) # 7000 <sbi_base>
    2cfc:	00080613          	mv	a2,a6
    2d00:	00f70533          	add	a0,a4,a5
    2d04:	300326f3          	csrrs	a3,mstatus,t1
    2d08:	00b50023          	sb	a1,0(a0) # 20000 <_sbi_end+0x18000>
    2d0c:	30069073          	csrw	mstatus,a3
    2d10:	00178793          	addi	a5,a5,1
    2d14:	ff1792e3          	bne	a5,a7,2cf8 <misaligned_store_trap+0xac>
    2d18:	00480813          	addi	a6,a6,4 # fffffffff2000004 <_end+0xfffffffff17be094>
    2d1c:	34181073          	csrw	mepc,a6
    2d20:	01010113          	addi	sp,sp,16
    2d24:	00008067          	ret
    2d28:	01010113          	addi	sp,sp,16
    2d2c:	efdfe06f          	j	1c28 <truly_illegal_insn>
    2d30:	00400893          	li	a7,4
    2d34:	f7dff06f          	j	2cb0 <misaligned_store_trap+0x64>
    2d38:	00800893          	li	a7,8
    2d3c:	f75ff06f          	j	2cb0 <misaligned_store_trap+0x64>

0000000000002d40 <__sbi_query_memory>:
    2d40:	00050663          	beqz	a0,2d4c <__sbi_query_memory+0xc>
    2d44:	fff00513          	li	a0,-1
    2d48:	00008067          	ret
    2d4c:	00004797          	auipc	a5,0x4
    2d50:	a5478793          	addi	a5,a5,-1452 # 67a0 <first_free_paddr>
    2d54:	0007b703          	ld	a4,0(a5)
    2d58:	00004797          	auipc	a5,0x4
    2d5c:	a3078793          	addi	a5,a5,-1488 # 6788 <mem_size>
    2d60:	0007b783          	ld	a5,0(a5)
    2d64:	00e5b023          	sd	a4,0(a1)
    2d68:	40e787b3          	sub	a5,a5,a4
    2d6c:	00f5b423          	sd	a5,8(a1)
    2d70:	00008067          	ret

0000000000002d74 <__sbi_mask_interrupt>:
    2d74:	ffb57793          	andi	a5,a0,-5
    2d78:	00100713          	li	a4,1
    2d7c:	00e78663          	beq	a5,a4,2d88 <__sbi_mask_interrupt+0x14>
    2d80:	fff00513          	li	a0,-1
    2d84:	00008067          	ret
    2d88:	00a797b3          	sll	a5,a5,a0
    2d8c:	1047b7f3          	csrrc	a5,sie,a5
    2d90:	00000513          	li	a0,0
    2d94:	00008067          	ret

0000000000002d98 <__sbi_unmask_interrupt>:
    2d98:	ffb57793          	andi	a5,a0,-5
    2d9c:	00100713          	li	a4,1
    2da0:	00e78663          	beq	a5,a4,2dac <__sbi_unmask_interrupt+0x14>
    2da4:	fff00513          	li	a0,-1
    2da8:	00008067          	ret
    2dac:	00a797b3          	sll	a5,a5,a0
    2db0:	1047a7f3          	csrrs	a5,sie,a5
    2db4:	00000513          	li	a0,0
    2db8:	00008067          	ret

0000000000002dbc <f32_add>:
    2dbc:	01f5561b          	srliw	a2,a0,0x1f
    2dc0:	0ff67613          	andi	a2,a2,255
    2dc4:	01f5d79b          	srliw	a5,a1,0x1f
    2dc8:	00002317          	auipc	t1,0x2
    2dcc:	44830313          	addi	t1,t1,1096 # 5210 <softfloat_subMagsF32>
    2dd0:	00f60463          	beq	a2,a5,2dd8 <f32_add+0x1c>
    2dd4:	00030067          	jr	t1
    2dd8:	00001317          	auipc	t1,0x1
    2ddc:	18030313          	addi	t1,t1,384 # 3f58 <softfloat_addMagsF32>
    2de0:	00030067          	jr	t1

0000000000002de4 <f32_div>:
    2de4:	fc010113          	addi	sp,sp,-64
    2de8:	02913423          	sd	s1,40(sp)
    2dec:	00a5c733          	xor	a4,a1,a0
    2df0:	0175549b          	srliw	s1,a0,0x17
    2df4:	008007b7          	lui	a5,0x800
    2df8:	fff7879b          	addiw	a5,a5,-1
    2dfc:	02813823          	sd	s0,48(sp)
    2e00:	03213023          	sd	s2,32(sp)
    2e04:	01313c23          	sd	s3,24(sp)
    2e08:	01413823          	sd	s4,16(sp)
    2e0c:	0175d91b          	srliw	s2,a1,0x17
    2e10:	01f7571b          	srliw	a4,a4,0x1f
    2e14:	0ff00693          	li	a3,255
    2e18:	02113c23          	sd	ra,56(sp)
    2e1c:	0ff4f493          	andi	s1,s1,255
    2e20:	00f579b3          	and	s3,a0,a5
    2e24:	00d97933          	and	s2,s2,a3
    2e28:	00f5f433          	and	s0,a1,a5
    2e2c:	0ff77a13          	andi	s4,a4,255
    2e30:	10d48463          	beq	s1,a3,2f38 <f32_div+0x154>
    2e34:	12d90c63          	beq	s2,a3,2f6c <f32_div+0x188>
    2e38:	04091463          	bnez	s2,2e80 <f32_div+0x9c>
    2e3c:	02041a63          	bnez	s0,2e70 <f32_div+0x8c>
    2e40:	0134e4b3          	or	s1,s1,s3
    2e44:	16049063          	bnez	s1,2fa4 <f32_div+0x1c0>
    2e48:	001867f3          	csrrs	a5,fflags,16
    2e4c:	03813083          	ld	ra,56(sp)
    2e50:	fff00513          	li	a0,-1
    2e54:	03013403          	ld	s0,48(sp)
    2e58:	02813483          	ld	s1,40(sp)
    2e5c:	02013903          	ld	s2,32(sp)
    2e60:	01813983          	ld	s3,24(sp)
    2e64:	01013a03          	ld	s4,16(sp)
    2e68:	04010113          	addi	sp,sp,64
    2e6c:	00008067          	ret
    2e70:	00040513          	mv	a0,s0
    2e74:	645010ef          	jal	4cb8 <softfloat_normSubnormalF32Sig>
    2e78:	0005091b          	sext.w	s2,a0
    2e7c:	42055413          	srai	s0,a0,0x20
    2e80:	02049e63          	bnez	s1,2ebc <f32_div+0xd8>
    2e84:	02099463          	bnez	s3,2eac <f32_div+0xc8>
    2e88:	03813083          	ld	ra,56(sp)
    2e8c:	01fa151b          	slliw	a0,s4,0x1f
    2e90:	03013403          	ld	s0,48(sp)
    2e94:	02813483          	ld	s1,40(sp)
    2e98:	02013903          	ld	s2,32(sp)
    2e9c:	01813983          	ld	s3,24(sp)
    2ea0:	01013a03          	ld	s4,16(sp)
    2ea4:	04010113          	addi	sp,sp,64
    2ea8:	00008067          	ret
    2eac:	00098513          	mv	a0,s3
    2eb0:	609010ef          	jal	4cb8 <softfloat_normSubnormalF32Sig>
    2eb4:	0005049b          	sext.w	s1,a0
    2eb8:	42055993          	srai	s3,a0,0x20
    2ebc:	008007b7          	lui	a5,0x800
    2ec0:	00f9e9b3          	or	s3,s3,a5
    2ec4:	00f467b3          	or	a5,s0,a5
    2ec8:	0089971b          	slliw	a4,s3,0x8
    2ecc:	0087979b          	slliw	a5,a5,0x8
    2ed0:	412485bb          	subw	a1,s1,s2
    2ed4:	0079999b          	slliw	s3,s3,0x7
    2ed8:	0af77c63          	bleu	a5,a4,2f90 <f32_div+0x1ac>
    2edc:	07d5859b          	addiw	a1,a1,125
    2ee0:	02079793          	slli	a5,a5,0x20
    2ee4:	02099993          	slli	s3,s3,0x20
    2ee8:	0207d793          	srli	a5,a5,0x20
    2eec:	02f9d733          	divu	a4,s3,a5
    2ef0:	0007061b          	sext.w	a2,a4
    2ef4:	03f67693          	andi	a3,a2,63
    2ef8:	00069e63          	bnez	a3,2f14 <f32_div+0x130>
    2efc:	02071713          	slli	a4,a4,0x20
    2f00:	02075713          	srli	a4,a4,0x20
    2f04:	02f707b3          	mul	a5,a4,a5
    2f08:	413789b3          	sub	s3,a5,s3
    2f0c:	013039b3          	snez	s3,s3
    2f10:	01366633          	or	a2,a2,s3
    2f14:	000a0513          	mv	a0,s4
    2f18:	03813083          	ld	ra,56(sp)
    2f1c:	03013403          	ld	s0,48(sp)
    2f20:	02813483          	ld	s1,40(sp)
    2f24:	02013903          	ld	s2,32(sp)
    2f28:	01813983          	ld	s3,24(sp)
    2f2c:	01013a03          	ld	s4,16(sp)
    2f30:	04010113          	addi	sp,sp,64
    2f34:	6050106f          	j	4d38 <softfloat_roundPackToF32>
    2f38:	02099c63          	bnez	s3,2f70 <f32_div+0x18c>
    2f3c:	06990063          	beq	s2,s1,2f9c <f32_div+0x1b8>
    2f40:	03813083          	ld	ra,56(sp)
    2f44:	01fa171b          	slliw	a4,s4,0x1f
    2f48:	7f800a37          	lui	s4,0x7f800
    2f4c:	0147053b          	addw	a0,a4,s4
    2f50:	03013403          	ld	s0,48(sp)
    2f54:	02813483          	ld	s1,40(sp)
    2f58:	02013903          	ld	s2,32(sp)
    2f5c:	01813983          	ld	s3,24(sp)
    2f60:	01013a03          	ld	s4,16(sp)
    2f64:	04010113          	addi	sp,sp,64
    2f68:	00008067          	ret
    2f6c:	f0040ee3          	beqz	s0,2e88 <f32_div+0xa4>
    2f70:	03813083          	ld	ra,56(sp)
    2f74:	03013403          	ld	s0,48(sp)
    2f78:	02813483          	ld	s1,40(sp)
    2f7c:	02013903          	ld	s2,32(sp)
    2f80:	01813983          	ld	s3,24(sp)
    2f84:	01013a03          	ld	s4,16(sp)
    2f88:	04010113          	addi	sp,sp,64
    2f8c:	6b00206f          	j	563c <softfloat_propagateNaNF32UI>
    2f90:	07e5859b          	addiw	a1,a1,126
    2f94:	0019d99b          	srliw	s3,s3,0x1
    2f98:	f49ff06f          	j	2ee0 <f32_div+0xfc>
    2f9c:	ea0406e3          	beqz	s0,2e48 <f32_div+0x64>
    2fa0:	fd1ff06f          	j	2f70 <f32_div+0x18c>
    2fa4:	001467f3          	csrrs	a5,fflags,8
    2fa8:	f99ff06f          	j	2f40 <f32_div+0x15c>

0000000000002fac <f32_eq>:
    2fac:	0175579b          	srliw	a5,a0,0x17
    2fb0:	0ff7f793          	andi	a5,a5,255
    2fb4:	0ff00713          	li	a4,255
    2fb8:	02e78863          	beq	a5,a4,2fe8 <f32_eq+0x3c>
    2fbc:	0175d79b          	srliw	a5,a1,0x17
    2fc0:	0ff7f793          	andi	a5,a5,255
    2fc4:	0ff00713          	li	a4,255
    2fc8:	04e78a63          	beq	a5,a4,301c <f32_eq+0x70>
    2fcc:	00100793          	li	a5,1
    2fd0:	00b50863          	beq	a0,a1,2fe0 <f32_eq+0x34>
    2fd4:	00b56533          	or	a0,a0,a1
    2fd8:	0015151b          	slliw	a0,a0,0x1
    2fdc:	00153793          	seqz	a5,a0
    2fe0:	00078513          	mv	a0,a5
    2fe4:	00008067          	ret
    2fe8:	02951793          	slli	a5,a0,0x29
    2fec:	fc0788e3          	beqz	a5,2fbc <f32_eq+0x10>
    2ff0:	0165579b          	srliw	a5,a0,0x16
    2ff4:	1ff7f793          	andi	a5,a5,511
    2ff8:	1fe00713          	li	a4,510
    2ffc:	02e78c63          	beq	a5,a4,3034 <f32_eq+0x88>
    3000:	0165d79b          	srliw	a5,a1,0x16
    3004:	1ff7f793          	andi	a5,a5,511
    3008:	1fe00713          	li	a4,510
    300c:	04e78063          	beq	a5,a4,304c <f32_eq+0xa0>
    3010:	00000793          	li	a5,0
    3014:	00078513          	mv	a0,a5
    3018:	00008067          	ret
    301c:	02959793          	slli	a5,a1,0x29
    3020:	fa0786e3          	beqz	a5,2fcc <f32_eq+0x20>
    3024:	0165579b          	srliw	a5,a0,0x16
    3028:	1ff7f793          	andi	a5,a5,511
    302c:	1fe00713          	li	a4,510
    3030:	fce798e3          	bne	a5,a4,3000 <f32_eq+0x54>
    3034:	02a51793          	slli	a5,a0,0x2a
    3038:	fc0784e3          	beqz	a5,3000 <f32_eq+0x54>
    303c:	001867f3          	csrrs	a5,fflags,16
    3040:	00000793          	li	a5,0
    3044:	00078513          	mv	a0,a5
    3048:	00008067          	ret
    304c:	02a59713          	slli	a4,a1,0x2a
    3050:	00000793          	li	a5,0
    3054:	f80706e3          	beqz	a4,2fe0 <f32_eq+0x34>
    3058:	fe5ff06f          	j	303c <f32_eq+0x90>

000000000000305c <f32_lt>:
    305c:	0175571b          	srliw	a4,a0,0x17
    3060:	0ff77713          	andi	a4,a4,255
    3064:	0ff00693          	li	a3,255
    3068:	00050793          	mv	a5,a0
    306c:	02d70863          	beq	a4,a3,309c <f32_lt+0x40>
    3070:	0175d71b          	srliw	a4,a1,0x17
    3074:	0ff77713          	andi	a4,a4,255
    3078:	0ff00693          	li	a3,255
    307c:	02d70a63          	beq	a4,a3,30b0 <f32_lt+0x54>
    3080:	01f7d51b          	srliw	a0,a5,0x1f
    3084:	0ff57713          	andi	a4,a0,255
    3088:	01f5d69b          	srliw	a3,a1,0x1f
    308c:	00000513          	li	a0,0
    3090:	02d70e63          	beq	a4,a3,30cc <f32_lt+0x70>
    3094:	0407c663          	bltz	a5,30e0 <f32_lt+0x84>
    3098:	00008067          	ret
    309c:	02979713          	slli	a4,a5,0x29
    30a0:	fc0708e3          	beqz	a4,3070 <f32_lt+0x14>
    30a4:	001867f3          	csrrs	a5,fflags,16
    30a8:	00000513          	li	a0,0
    30ac:	00008067          	ret
    30b0:	02959713          	slli	a4,a1,0x29
    30b4:	fe0718e3          	bnez	a4,30a4 <f32_lt+0x48>
    30b8:	01f7d51b          	srliw	a0,a5,0x1f
    30bc:	0ff57713          	andi	a4,a0,255
    30c0:	01f5d69b          	srliw	a3,a1,0x1f
    30c4:	00000513          	li	a0,0
    30c8:	fcd716e3          	bne	a4,a3,3094 <f32_lt+0x38>
    30cc:	fcb786e3          	beq	a5,a1,3098 <f32_lt+0x3c>
    30d0:	00b7b7b3          	sltu	a5,a5,a1
    30d4:	40e7853b          	subw	a0,a5,a4
    30d8:	00a03533          	snez	a0,a0
    30dc:	00008067          	ret
    30e0:	00b7e7b3          	or	a5,a5,a1
    30e4:	0017951b          	slliw	a0,a5,0x1
    30e8:	00a03533          	snez	a0,a0
    30ec:	00008067          	ret

00000000000030f0 <f32_lt_quiet>:
    30f0:	0175571b          	srliw	a4,a0,0x17
    30f4:	0ff77713          	andi	a4,a4,255
    30f8:	0ff00693          	li	a3,255
    30fc:	00050793          	mv	a5,a0
    3100:	02d70863          	beq	a4,a3,3130 <f32_lt_quiet+0x40>
    3104:	0175d71b          	srliw	a4,a1,0x17
    3108:	0ff77713          	andi	a4,a4,255
    310c:	0ff00693          	li	a3,255
    3110:	06d70063          	beq	a4,a3,3170 <f32_lt_quiet+0x80>
    3114:	01f7d51b          	srliw	a0,a5,0x1f
    3118:	0ff57713          	andi	a4,a0,255
    311c:	01f5d69b          	srliw	a3,a1,0x1f
    3120:	00000513          	li	a0,0
    3124:	06d70463          	beq	a4,a3,318c <f32_lt_quiet+0x9c>
    3128:	0607cc63          	bltz	a5,31a0 <f32_lt_quiet+0xb0>
    312c:	00008067          	ret
    3130:	02979713          	slli	a4,a5,0x29
    3134:	fc0708e3          	beqz	a4,3104 <f32_lt_quiet+0x14>
    3138:	0167d71b          	srliw	a4,a5,0x16
    313c:	1ff77713          	andi	a4,a4,511
    3140:	1fe00693          	li	a3,510
    3144:	06d70663          	beq	a4,a3,31b0 <f32_lt_quiet+0xc0>
    3148:	0165d79b          	srliw	a5,a1,0x16
    314c:	1ff7f793          	andi	a5,a5,511
    3150:	1fe00713          	li	a4,510
    3154:	00000513          	li	a0,0
    3158:	fce79ae3          	bne	a5,a4,312c <f32_lt_quiet+0x3c>
    315c:	02a59793          	slli	a5,a1,0x2a
    3160:	fc0786e3          	beqz	a5,312c <f32_lt_quiet+0x3c>
    3164:	001867f3          	csrrs	a5,fflags,16
    3168:	00000513          	li	a0,0
    316c:	00008067          	ret
    3170:	02959713          	slli	a4,a1,0x29
    3174:	fa0700e3          	beqz	a4,3114 <f32_lt_quiet+0x24>
    3178:	0167d71b          	srliw	a4,a5,0x16
    317c:	1ff77713          	andi	a4,a4,511
    3180:	1fe00693          	li	a3,510
    3184:	fcd712e3          	bne	a4,a3,3148 <f32_lt_quiet+0x58>
    3188:	0280006f          	j	31b0 <f32_lt_quiet+0xc0>
    318c:	fab780e3          	beq	a5,a1,312c <f32_lt_quiet+0x3c>
    3190:	00b7b7b3          	sltu	a5,a5,a1
    3194:	40e7853b          	subw	a0,a5,a4
    3198:	00a03533          	snez	a0,a0
    319c:	00008067          	ret
    31a0:	00b7e7b3          	or	a5,a5,a1
    31a4:	0017951b          	slliw	a0,a5,0x1
    31a8:	00a03533          	snez	a0,a0
    31ac:	00008067          	ret
    31b0:	02a79713          	slli	a4,a5,0x2a
    31b4:	fa0718e3          	bnez	a4,3164 <f32_lt_quiet+0x74>
    31b8:	f91ff06f          	j	3148 <f32_lt_quiet+0x58>

00000000000031bc <f32_mul>:
    31bc:	fc010113          	addi	sp,sp,-64
    31c0:	03213023          	sd	s2,32(sp)
    31c4:	00a5c733          	xor	a4,a1,a0
    31c8:	0175591b          	srliw	s2,a0,0x17
    31cc:	008007b7          	lui	a5,0x800
    31d0:	fff7879b          	addiw	a5,a5,-1
    31d4:	02813823          	sd	s0,48(sp)
    31d8:	02913423          	sd	s1,40(sp)
    31dc:	01313c23          	sd	s3,24(sp)
    31e0:	01413823          	sd	s4,16(sp)
    31e4:	0175d99b          	srliw	s3,a1,0x17
    31e8:	01f7571b          	srliw	a4,a4,0x1f
    31ec:	0ff00693          	li	a3,255
    31f0:	02113c23          	sd	ra,56(sp)
    31f4:	0ff97913          	andi	s2,s2,255
    31f8:	00f57a33          	and	s4,a0,a5
    31fc:	00d9f9b3          	and	s3,s3,a3
    3200:	00f5f433          	and	s0,a1,a5
    3204:	0ff77493          	andi	s1,a4,255
    3208:	04d90863          	beq	s2,a3,3258 <f32_mul+0x9c>
    320c:	0ad98463          	beq	s3,a3,32b4 <f32_mul+0xf8>
    3210:	02090863          	beqz	s2,3240 <f32_mul+0x84>
    3214:	0c099663          	bnez	s3,32e0 <f32_mul+0x124>
    3218:	0a041c63          	bnez	s0,32d0 <f32_mul+0x114>
    321c:	01f4951b          	slliw	a0,s1,0x1f
    3220:	03813083          	ld	ra,56(sp)
    3224:	03013403          	ld	s0,48(sp)
    3228:	02813483          	ld	s1,40(sp)
    322c:	02013903          	ld	s2,32(sp)
    3230:	01813983          	ld	s3,24(sp)
    3234:	01013a03          	ld	s4,16(sp)
    3238:	04010113          	addi	sp,sp,64
    323c:	00008067          	ret
    3240:	fc0a0ee3          	beqz	s4,321c <f32_mul+0x60>
    3244:	000a0513          	mv	a0,s4
    3248:	271010ef          	jal	4cb8 <softfloat_normSubnormalF32Sig>
    324c:	0005091b          	sext.w	s2,a0
    3250:	42055a13          	srai	s4,a0,0x20
    3254:	fc1ff06f          	j	3214 <f32_mul+0x58>
    3258:	020a1e63          	bnez	s4,3294 <f32_mul+0xd8>
    325c:	03298a63          	beq	s3,s2,3290 <f32_mul+0xd4>
    3260:	0089e7b3          	or	a5,s3,s0
    3264:	04079e63          	bnez	a5,32c0 <f32_mul+0x104>
    3268:	001867f3          	csrrs	a5,fflags,16
    326c:	03813083          	ld	ra,56(sp)
    3270:	fff00513          	li	a0,-1
    3274:	03013403          	ld	s0,48(sp)
    3278:	02813483          	ld	s1,40(sp)
    327c:	02013903          	ld	s2,32(sp)
    3280:	01813983          	ld	s3,24(sp)
    3284:	01013a03          	ld	s4,16(sp)
    3288:	04010113          	addi	sp,sp,64
    328c:	00008067          	ret
    3290:	fc0408e3          	beqz	s0,3260 <f32_mul+0xa4>
    3294:	03813083          	ld	ra,56(sp)
    3298:	03013403          	ld	s0,48(sp)
    329c:	02813483          	ld	s1,40(sp)
    32a0:	02013903          	ld	s2,32(sp)
    32a4:	01813983          	ld	s3,24(sp)
    32a8:	01013a03          	ld	s4,16(sp)
    32ac:	04010113          	addi	sp,sp,64
    32b0:	38c0206f          	j	563c <softfloat_propagateNaNF32UI>
    32b4:	014967b3          	or	a5,s2,s4
    32b8:	fc041ee3          	bnez	s0,3294 <f32_mul+0xd8>
    32bc:	fa0786e3          	beqz	a5,3268 <f32_mul+0xac>
    32c0:	01f4971b          	slliw	a4,s1,0x1f
    32c4:	7f8004b7          	lui	s1,0x7f800
    32c8:	0097053b          	addw	a0,a4,s1
    32cc:	f55ff06f          	j	3220 <f32_mul+0x64>
    32d0:	00040513          	mv	a0,s0
    32d4:	1e5010ef          	jal	4cb8 <softfloat_normSubnormalF32Sig>
    32d8:	0005099b          	sext.w	s3,a0
    32dc:	42055413          	srai	s0,a0,0x20
    32e0:	008007b7          	lui	a5,0x800
    32e4:	00fa6a33          	or	s4,s4,a5
    32e8:	00f46533          	or	a0,s0,a5
    32ec:	007a1a1b          	slliw	s4,s4,0x7
    32f0:	0085151b          	slliw	a0,a0,0x8
    32f4:	020a1a13          	slli	s4,s4,0x20
    32f8:	02051513          	slli	a0,a0,0x20
    32fc:	020a5a13          	srli	s4,s4,0x20
    3300:	02055513          	srli	a0,a0,0x20
    3304:	02aa0533          	mul	a0,s4,a0
    3308:	02000593          	li	a1,32
    330c:	0139093b          	addw	s2,s2,s3
    3310:	6bd010ef          	jal	51cc <softfloat_shortShift64RightJam>
    3314:	0005061b          	sext.w	a2,a0
    3318:	400007b7          	lui	a5,0x40000
    331c:	f819059b          	addiw	a1,s2,-127
    3320:	00f67663          	bleu	a5,a2,332c <f32_mul+0x170>
    3324:	f809059b          	addiw	a1,s2,-128
    3328:	0016161b          	slliw	a2,a2,0x1
    332c:	00048513          	mv	a0,s1
    3330:	03813083          	ld	ra,56(sp)
    3334:	03013403          	ld	s0,48(sp)
    3338:	02813483          	ld	s1,40(sp)
    333c:	02013903          	ld	s2,32(sp)
    3340:	01813983          	ld	s3,24(sp)
    3344:	01013a03          	ld	s4,16(sp)
    3348:	04010113          	addi	sp,sp,64
    334c:	1ed0106f          	j	4d38 <softfloat_roundPackToF32>

0000000000003350 <f32_sqrt>:
    3350:	fd010113          	addi	sp,sp,-48
    3354:	02813023          	sd	s0,32(sp)
    3358:	0175541b          	srliw	s0,a0,0x17
    335c:	00913c23          	sd	s1,24(sp)
    3360:	0ff47493          	andi	s1,s0,255
    3364:	00800437          	lui	s0,0x800
    3368:	fff4041b          	addiw	s0,s0,-1
    336c:	02113423          	sd	ra,40(sp)
    3370:	01213823          	sd	s2,16(sp)
    3374:	0ff00713          	li	a4,255
    3378:	00857433          	and	s0,a0,s0
    337c:	0ce48e63          	beq	s1,a4,3458 <f32_sqrt+0x108>
    3380:	10054063          	bltz	a0,3480 <f32_sqrt+0x130>
    3384:	02049863          	bnez	s1,33b4 <f32_sqrt+0x64>
    3388:	00041e63          	bnez	s0,33a4 <f32_sqrt+0x54>
    338c:	02813083          	ld	ra,40(sp)
    3390:	02013403          	ld	s0,32(sp)
    3394:	01813483          	ld	s1,24(sp)
    3398:	01013903          	ld	s2,16(sp)
    339c:	03010113          	addi	sp,sp,48
    33a0:	00008067          	ret
    33a4:	00040513          	mv	a0,s0
    33a8:	111010ef          	jal	4cb8 <softfloat_normSubnormalF32Sig>
    33ac:	0005049b          	sext.w	s1,a0
    33b0:	42055413          	srai	s0,a0,0x20
    33b4:	008007b7          	lui	a5,0x800
    33b8:	00f46433          	or	s0,s0,a5
    33bc:	0084141b          	slliw	s0,s0,0x8
    33c0:	00040593          	mv	a1,s0
    33c4:	00048513          	mv	a0,s1
    33c8:	7e5000ef          	jal	43ac <softfloat_estimateSqrt32>
    33cc:	f814891b          	addiw	s2,s1,-127
    33d0:	0025051b          	addiw	a0,a0,2
    33d4:	4019591b          	sraiw	s2,s2,0x1
    33d8:	07f57713          	andi	a4,a0,127
    33dc:	00500793          	li	a5,5
    33e0:	07e9091b          	addiw	s2,s2,126
    33e4:	04e7e663          	bltu	a5,a4,3430 <f32_sqrt+0xe0>
    33e8:	00100793          	li	a5,1
    33ec:	0ca7f263          	bleu	a0,a5,34b0 <f32_sqrt+0x160>
    33f0:	02051713          	slli	a4,a0,0x20
    33f4:	02075713          	srli	a4,a4,0x20
    33f8:	02e70733          	mul	a4,a4,a4
    33fc:	00f4f4b3          	and	s1,s1,a5
    3400:	0094543b          	srlw	s0,s0,s1
    3404:	02041413          	slli	s0,s0,0x20
    3408:	40e40733          	sub	a4,s0,a4
    340c:	00075e63          	bgez	a4,3428 <f32_sqrt+0xd8>
    3410:	fff5051b          	addiw	a0,a0,-1
    3414:	02051793          	slli	a5,a0,0x20
    3418:	01f7d793          	srli	a5,a5,0x1f
    341c:	0017e793          	ori	a5,a5,1
    3420:	00f70733          	add	a4,a4,a5
    3424:	fe0746e3          	bltz	a4,3410 <f32_sqrt+0xc0>
    3428:	00e03733          	snez	a4,a4
    342c:	00e56533          	or	a0,a0,a4
    3430:	58d010ef          	jal	51bc <softfloat_shortShift32Right1Jam>
    3434:	00050613          	mv	a2,a0
    3438:	00090593          	mv	a1,s2
    343c:	02813083          	ld	ra,40(sp)
    3440:	02013403          	ld	s0,32(sp)
    3444:	01813483          	ld	s1,24(sp)
    3448:	01013903          	ld	s2,16(sp)
    344c:	00000513          	li	a0,0
    3450:	03010113          	addi	sp,sp,48
    3454:	0e50106f          	j	4d38 <softfloat_roundPackToF32>
    3458:	02041e63          	bnez	s0,3494 <f32_sqrt+0x144>
    345c:	f20558e3          	bgez	a0,338c <f32_sqrt+0x3c>
    3460:	001867f3          	csrrs	a5,fflags,16
    3464:	fff00513          	li	a0,-1
    3468:	02813083          	ld	ra,40(sp)
    346c:	02013403          	ld	s0,32(sp)
    3470:	01813483          	ld	s1,24(sp)
    3474:	01013903          	ld	s2,16(sp)
    3478:	03010113          	addi	sp,sp,48
    347c:	00008067          	ret
    3480:	0084e433          	or	s0,s1,s0
    3484:	f00404e3          	beqz	s0,338c <f32_sqrt+0x3c>
    3488:	001867f3          	csrrs	a5,fflags,16
    348c:	fff00513          	li	a0,-1
    3490:	fd9ff06f          	j	3468 <f32_sqrt+0x118>
    3494:	02813083          	ld	ra,40(sp)
    3498:	02013403          	ld	s0,32(sp)
    349c:	01813483          	ld	s1,24(sp)
    34a0:	01013903          	ld	s2,16(sp)
    34a4:	00000593          	li	a1,0
    34a8:	03010113          	addi	sp,sp,48
    34ac:	1900206f          	j	563c <softfloat_propagateNaNF32UI>
    34b0:	80000637          	lui	a2,0x80000
    34b4:	fff64613          	not	a2,a2
    34b8:	f81ff06f          	j	3438 <f32_sqrt+0xe8>

00000000000034bc <f32_to_f64>:
    34bc:	fb010113          	addi	sp,sp,-80
    34c0:	01f5579b          	srliw	a5,a0,0x1f
    34c4:	04813023          	sd	s0,64(sp)
    34c8:	0175571b          	srliw	a4,a0,0x17
    34cc:	0ff7f413          	andi	s0,a5,255
    34d0:	008007b7          	lui	a5,0x800
    34d4:	fff7879b          	addiw	a5,a5,-1
    34d8:	04113423          	sd	ra,72(sp)
    34dc:	0ff77713          	andi	a4,a4,255
    34e0:	0ff00693          	li	a3,255
    34e4:	00f577b3          	and	a5,a0,a5
    34e8:	04d70a63          	beq	a4,a3,353c <f32_to_f64+0x80>
    34ec:	02070a63          	beqz	a4,3520 <f32_to_f64+0x64>
    34f0:	02079793          	slli	a5,a5,0x20
    34f4:	0207d793          	srli	a5,a5,0x20
    34f8:	03f41513          	slli	a0,s0,0x3f
    34fc:	01d79793          	slli	a5,a5,0x1d
    3500:	3807071b          	addiw	a4,a4,896
    3504:	00f507b3          	add	a5,a0,a5
    3508:	03471513          	slli	a0,a4,0x34
    350c:	00a78533          	add	a0,a5,a0
    3510:	04813083          	ld	ra,72(sp)
    3514:	04013403          	ld	s0,64(sp)
    3518:	05010113          	addi	sp,sp,80
    351c:	00008067          	ret
    3520:	03f41513          	slli	a0,s0,0x3f
    3524:	fe0786e3          	beqz	a5,3510 <f32_to_f64+0x54>
    3528:	00078513          	mv	a0,a5
    352c:	78c010ef          	jal	4cb8 <softfloat_normSubnormalF32Sig>
    3530:	fff5071b          	addiw	a4,a0,-1
    3534:	42055793          	srai	a5,a0,0x20
    3538:	fb9ff06f          	j	34f0 <f32_to_f64+0x34>
    353c:	02079263          	bnez	a5,3560 <f32_to_f64+0xa4>
    3540:	04813083          	ld	ra,72(sp)
    3544:	7ff00793          	li	a5,2047
    3548:	03f41513          	slli	a0,s0,0x3f
    354c:	03479793          	slli	a5,a5,0x34
    3550:	00f50533          	add	a0,a0,a5
    3554:	04013403          	ld	s0,64(sp)
    3558:	05010113          	addi	sp,sp,80
    355c:	00008067          	ret
    3560:	00050593          	mv	a1,a0
    3564:	02810513          	addi	a0,sp,40
    3568:	040020ef          	jal	55a8 <softfloat_f32UIToCommonNaN>
    356c:	02813783          	ld	a5,40(sp)
    3570:	00010513          	mv	a0,sp
    3574:	00f13023          	sd	a5,0(sp)
    3578:	03013783          	ld	a5,48(sp)
    357c:	00f13423          	sd	a5,8(sp)
    3580:	03813783          	ld	a5,56(sp)
    3584:	00f13823          	sd	a5,16(sp)
    3588:	008020ef          	jal	5590 <softfloat_commonNaNToF64UI>
    358c:	f85ff06f          	j	3510 <f32_to_f64+0x54>

0000000000003590 <f64_add>:
    3590:	03f55613          	srli	a2,a0,0x3f
    3594:	03f5d793          	srli	a5,a1,0x3f
    3598:	00002317          	auipc	t1,0x2
    359c:	e0c30313          	addi	t1,t1,-500 # 53a4 <softfloat_subMagsF64>
    35a0:	00f60463          	beq	a2,a5,35a8 <f64_add+0x18>
    35a4:	00030067          	jr	t1
    35a8:	00001317          	auipc	t1,0x1
    35ac:	b4830313          	addi	t1,t1,-1208 # 40f0 <softfloat_addMagsF64>
    35b0:	00030067          	jr	t1

00000000000035b4 <f64_div>:
    35b4:	fa010113          	addi	sp,sp,-96
    35b8:	04913423          	sd	s1,72(sp)
    35bc:	fff00793          	li	a5,-1
    35c0:	03455493          	srli	s1,a0,0x34
    35c4:	00c7d793          	srli	a5,a5,0xc
    35c8:	04813823          	sd	s0,80(sp)
    35cc:	05213023          	sd	s2,64(sp)
    35d0:	03313c23          	sd	s3,56(sp)
    35d4:	03413823          	sd	s4,48(sp)
    35d8:	0345d993          	srli	s3,a1,0x34
    35dc:	00a5c933          	xor	s2,a1,a0
    35e0:	7ff00713          	li	a4,2047
    35e4:	04113c23          	sd	ra,88(sp)
    35e8:	7ff4f493          	andi	s1,s1,2047
    35ec:	00f57a33          	and	s4,a0,a5
    35f0:	00e9f9b3          	and	s3,s3,a4
    35f4:	00f5f433          	and	s0,a1,a5
    35f8:	03f95913          	srli	s2,s2,0x3f
    35fc:	10e48a63          	beq	s1,a4,3710 <f64_div+0x15c>
    3600:	14e98463          	beq	s3,a4,3748 <f64_div+0x194>
    3604:	04099863          	bnez	s3,3654 <f64_div+0xa0>
    3608:	02041a63          	bnez	s0,363c <f64_div+0x88>
    360c:	0144e4b3          	or	s1,s1,s4
    3610:	1e049263          	bnez	s1,37f4 <f64_div+0x240>
    3614:	001867f3          	csrrs	a5,fflags,16
    3618:	05813083          	ld	ra,88(sp)
    361c:	fff00513          	li	a0,-1
    3620:	05013403          	ld	s0,80(sp)
    3624:	04813483          	ld	s1,72(sp)
    3628:	04013903          	ld	s2,64(sp)
    362c:	03813983          	ld	s3,56(sp)
    3630:	03013a03          	ld	s4,48(sp)
    3634:	06010113          	addi	sp,sp,96
    3638:	00008067          	ret
    363c:	00040513          	mv	a0,s0
    3640:	6bc010ef          	jal	4cfc <softfloat_normSubnormalF64Sig>
    3644:	00b13423          	sd	a1,8(sp)
    3648:	00058413          	mv	s0,a1
    364c:	0005099b          	sext.w	s3,a0
    3650:	00a13023          	sd	a0,0(sp)
    3654:	04049463          	bnez	s1,369c <f64_div+0xe8>
    3658:	020a1463          	bnez	s4,3680 <f64_div+0xcc>
    365c:	05813083          	ld	ra,88(sp)
    3660:	03f91513          	slli	a0,s2,0x3f
    3664:	05013403          	ld	s0,80(sp)
    3668:	04813483          	ld	s1,72(sp)
    366c:	04013903          	ld	s2,64(sp)
    3670:	03813983          	ld	s3,56(sp)
    3674:	03013a03          	ld	s4,48(sp)
    3678:	06010113          	addi	sp,sp,96
    367c:	00008067          	ret
    3680:	000a0513          	mv	a0,s4
    3684:	678010ef          	jal	4cfc <softfloat_normSubnormalF64Sig>
    3688:	0005079b          	sext.w	a5,a0
    368c:	00b13423          	sd	a1,8(sp)
    3690:	00058a13          	mv	s4,a1
    3694:	00a13023          	sd	a0,0(sp)
    3698:	00078493          	mv	s1,a5
    369c:	00100793          	li	a5,1
    36a0:	03479793          	slli	a5,a5,0x34
    36a4:	00fa6a33          	or	s4,s4,a5
    36a8:	00f46433          	or	s0,s0,a5
    36ac:	00b41413          	slli	s0,s0,0xb
    36b0:	00ba1793          	slli	a5,s4,0xb
    36b4:	413484bb          	subw	s1,s1,s3
    36b8:	00aa1a13          	slli	s4,s4,0xa
    36bc:	0a87f863          	bleu	s0,a5,376c <f64_div+0x1b8>
    36c0:	3fd4849b          	addiw	s1,s1,1021
    36c4:	00040613          	mv	a2,s0
    36c8:	00000593          	li	a1,0
    36cc:	000a0513          	mv	a0,s4
    36d0:	3cd000ef          	jal	429c <softfloat_estimateDiv128To64>
    36d4:	1ff57713          	andi	a4,a0,511
    36d8:	00200793          	li	a5,2
    36dc:	00050993          	mv	s3,a0
    36e0:	08e7fc63          	bleu	a4,a5,3778 <f64_div+0x1c4>
    36e4:	00098613          	mv	a2,s3
    36e8:	00048593          	mv	a1,s1
    36ec:	00090513          	mv	a0,s2
    36f0:	05813083          	ld	ra,88(sp)
    36f4:	05013403          	ld	s0,80(sp)
    36f8:	04813483          	ld	s1,72(sp)
    36fc:	04013903          	ld	s2,64(sp)
    3700:	03813983          	ld	s3,56(sp)
    3704:	03013a03          	ld	s4,48(sp)
    3708:	06010113          	addi	sp,sp,96
    370c:	76c0106f          	j	4e78 <softfloat_roundPackToF64>
    3710:	020a1e63          	bnez	s4,374c <f64_div+0x198>
    3714:	0c998c63          	beq	s3,s1,37ec <f64_div+0x238>
    3718:	05813083          	ld	ra,88(sp)
    371c:	7ff00513          	li	a0,2047
    3720:	03f91913          	slli	s2,s2,0x3f
    3724:	03451513          	slli	a0,a0,0x34
    3728:	00a90533          	add	a0,s2,a0
    372c:	05013403          	ld	s0,80(sp)
    3730:	04813483          	ld	s1,72(sp)
    3734:	04013903          	ld	s2,64(sp)
    3738:	03813983          	ld	s3,56(sp)
    373c:	03013a03          	ld	s4,48(sp)
    3740:	06010113          	addi	sp,sp,96
    3744:	00008067          	ret
    3748:	f0040ae3          	beqz	s0,365c <f64_div+0xa8>
    374c:	05813083          	ld	ra,88(sp)
    3750:	05013403          	ld	s0,80(sp)
    3754:	04813483          	ld	s1,72(sp)
    3758:	04013903          	ld	s2,64(sp)
    375c:	03813983          	ld	s3,56(sp)
    3760:	03013a03          	ld	s4,48(sp)
    3764:	06010113          	addi	sp,sp,96
    3768:	7190106f          	j	5680 <softfloat_propagateNaNF64UI>
    376c:	3fe4849b          	addiw	s1,s1,1022
    3770:	001a5a13          	srli	s4,s4,0x1
    3774:	f51ff06f          	j	36c4 <f64_div+0x110>
    3778:	00050593          	mv	a1,a0
    377c:	00040513          	mv	a0,s0
    3780:	4cd000ef          	jal	444c <softfloat_mul64To128>
    3784:	00050793          	mv	a5,a0
    3788:	00b13c23          	sd	a1,24(sp)
    378c:	00058613          	mv	a2,a1
    3790:	00050693          	mv	a3,a0
    3794:	00000593          	li	a1,0
    3798:	000a0513          	mv	a0,s4
    379c:	00f13823          	sd	a5,16(sp)
    37a0:	255010ef          	jal	51f4 <softfloat_sub128>
    37a4:	02b13423          	sd	a1,40(sp)
    37a8:	00058713          	mv	a4,a1
    37ac:	02a13023          	sd	a0,32(sp)
    37b0:	00050593          	mv	a1,a0
    37b4:	02075663          	bgez	a4,37e0 <f64_div+0x22c>
    37b8:	00070513          	mv	a0,a4
    37bc:	00040693          	mv	a3,s0
    37c0:	00000613          	li	a2,0
    37c4:	774000ef          	jal	3f38 <softfloat_add128>
    37c8:	02b13423          	sd	a1,40(sp)
    37cc:	00058713          	mv	a4,a1
    37d0:	02a13023          	sd	a0,32(sp)
    37d4:	fff98993          	addi	s3,s3,-1
    37d8:	00050593          	mv	a1,a0
    37dc:	fc074ee3          	bltz	a4,37b8 <f64_div+0x204>
    37e0:	00b03533          	snez	a0,a1
    37e4:	00a9e9b3          	or	s3,s3,a0
    37e8:	efdff06f          	j	36e4 <f64_div+0x130>
    37ec:	e20404e3          	beqz	s0,3614 <f64_div+0x60>
    37f0:	f5dff06f          	j	374c <f64_div+0x198>
    37f4:	001467f3          	csrrs	a5,fflags,8
    37f8:	f21ff06f          	j	3718 <f64_div+0x164>

00000000000037fc <f64_eq>:
    37fc:	03455713          	srli	a4,a0,0x34
    3800:	fff74713          	not	a4,a4
    3804:	03571793          	slli	a5,a4,0x35
    3808:	02078c63          	beqz	a5,3840 <f64_eq+0x44>
    380c:	0345d793          	srli	a5,a1,0x34
    3810:	fff7c793          	not	a5,a5
    3814:	03579713          	slli	a4,a5,0x35
    3818:	06070663          	beqz	a4,3884 <f64_eq+0x88>
    381c:	00100793          	li	a5,1
    3820:	00b50c63          	beq	a0,a1,3838 <f64_eq+0x3c>
    3824:	fff00793          	li	a5,-1
    3828:	00b565b3          	or	a1,a0,a1
    382c:	0017d793          	srli	a5,a5,0x1
    3830:	00f5f7b3          	and	a5,a1,a5
    3834:	0017b793          	seqz	a5,a5
    3838:	00078513          	mv	a0,a5
    383c:	00008067          	ret
    3840:	00c51793          	slli	a5,a0,0xc
    3844:	fc0784e3          	beqz	a5,380c <f64_eq+0x10>
    3848:	000017b7          	lui	a5,0x1
    384c:	fff78693          	addi	a3,a5,-1 # fff <hls_init+0x43>
    3850:	03355713          	srli	a4,a0,0x33
    3854:	00d77733          	and	a4,a4,a3
    3858:	ffe78793          	addi	a5,a5,-2
    385c:	04f70463          	beq	a4,a5,38a4 <f64_eq+0xa8>
    3860:	000017b7          	lui	a5,0x1
    3864:	fff78693          	addi	a3,a5,-1 # fff <hls_init+0x43>
    3868:	0335d713          	srli	a4,a1,0x33
    386c:	00d77733          	and	a4,a4,a3
    3870:	ffe78793          	addi	a5,a5,-2
    3874:	04f70463          	beq	a4,a5,38bc <f64_eq+0xc0>
    3878:	00000793          	li	a5,0
    387c:	00078513          	mv	a0,a5
    3880:	00008067          	ret
    3884:	00c59793          	slli	a5,a1,0xc
    3888:	f8078ae3          	beqz	a5,381c <f64_eq+0x20>
    388c:	000017b7          	lui	a5,0x1
    3890:	fff78693          	addi	a3,a5,-1 # fff <hls_init+0x43>
    3894:	03355713          	srli	a4,a0,0x33
    3898:	00d77733          	and	a4,a4,a3
    389c:	ffe78793          	addi	a5,a5,-2
    38a0:	fcf710e3          	bne	a4,a5,3860 <f64_eq+0x64>
    38a4:	00d51793          	slli	a5,a0,0xd
    38a8:	fa078ce3          	beqz	a5,3860 <f64_eq+0x64>
    38ac:	001867f3          	csrrs	a5,fflags,16
    38b0:	00000793          	li	a5,0
    38b4:	00078513          	mv	a0,a5
    38b8:	00008067          	ret
    38bc:	00d59713          	slli	a4,a1,0xd
    38c0:	00000793          	li	a5,0
    38c4:	f6070ae3          	beqz	a4,3838 <f64_eq+0x3c>
    38c8:	fe5ff06f          	j	38ac <f64_eq+0xb0>

00000000000038cc <f64_lt>:
    38cc:	03455713          	srli	a4,a0,0x34
    38d0:	fff74713          	not	a4,a4
    38d4:	03571693          	slli	a3,a4,0x35
    38d8:	00050793          	mv	a5,a0
    38dc:	02068663          	beqz	a3,3908 <f64_lt+0x3c>
    38e0:	0345d713          	srli	a4,a1,0x34
    38e4:	fff74713          	not	a4,a4
    38e8:	03571693          	slli	a3,a4,0x35
    38ec:	02068863          	beqz	a3,391c <f64_lt+0x50>
    38f0:	03f7d713          	srli	a4,a5,0x3f
    38f4:	03f5d693          	srli	a3,a1,0x3f
    38f8:	00000513          	li	a0,0
    38fc:	02d70c63          	beq	a4,a3,3934 <f64_lt+0x68>
    3900:	0407c463          	bltz	a5,3948 <f64_lt+0x7c>
    3904:	00008067          	ret
    3908:	00c51713          	slli	a4,a0,0xc
    390c:	fc070ae3          	beqz	a4,38e0 <f64_lt+0x14>
    3910:	001867f3          	csrrs	a5,fflags,16
    3914:	00000513          	li	a0,0
    3918:	00008067          	ret
    391c:	00c59713          	slli	a4,a1,0xc
    3920:	fe0718e3          	bnez	a4,3910 <f64_lt+0x44>
    3924:	03f7d713          	srli	a4,a5,0x3f
    3928:	03f5d693          	srli	a3,a1,0x3f
    392c:	00000513          	li	a0,0
    3930:	fcd718e3          	bne	a4,a3,3900 <f64_lt+0x34>
    3934:	fcb788e3          	beq	a5,a1,3904 <f64_lt+0x38>
    3938:	00b7b7b3          	sltu	a5,a5,a1
    393c:	40e7853b          	subw	a0,a5,a4
    3940:	00a03533          	snez	a0,a0
    3944:	00008067          	ret
    3948:	fff00513          	li	a0,-1
    394c:	00b7e7b3          	or	a5,a5,a1
    3950:	00155513          	srli	a0,a0,0x1
    3954:	00a7f7b3          	and	a5,a5,a0
    3958:	00f03533          	snez	a0,a5
    395c:	00008067          	ret

0000000000003960 <f64_lt_quiet>:
    3960:	03455713          	srli	a4,a0,0x34
    3964:	fff74713          	not	a4,a4
    3968:	03571693          	slli	a3,a4,0x35
    396c:	00050793          	mv	a5,a0
    3970:	02068663          	beqz	a3,399c <f64_lt_quiet+0x3c>
    3974:	0345d713          	srli	a4,a1,0x34
    3978:	fff74713          	not	a4,a4
    397c:	03571693          	slli	a3,a4,0x35
    3980:	06068663          	beqz	a3,39ec <f64_lt_quiet+0x8c>
    3984:	03f7d713          	srli	a4,a5,0x3f
    3988:	03f5d693          	srli	a3,a1,0x3f
    398c:	00000513          	li	a0,0
    3990:	08d70063          	beq	a4,a3,3a10 <f64_lt_quiet+0xb0>
    3994:	0807c863          	bltz	a5,3a24 <f64_lt_quiet+0xc4>
    3998:	00008067          	ret
    399c:	00c51713          	slli	a4,a0,0xc
    39a0:	fc070ae3          	beqz	a4,3974 <f64_lt_quiet+0x14>
    39a4:	00001737          	lui	a4,0x1
    39a8:	fff70613          	addi	a2,a4,-1 # fff <hls_init+0x43>
    39ac:	0337d693          	srli	a3,a5,0x33
    39b0:	00c6f6b3          	and	a3,a3,a2
    39b4:	ffe70713          	addi	a4,a4,-2
    39b8:	08e68263          	beq	a3,a4,3a3c <f64_lt_quiet+0xdc>
    39bc:	000017b7          	lui	a5,0x1
    39c0:	fff78693          	addi	a3,a5,-1 # fff <hls_init+0x43>
    39c4:	0335d713          	srli	a4,a1,0x33
    39c8:	00d77733          	and	a4,a4,a3
    39cc:	ffe78793          	addi	a5,a5,-2
    39d0:	00000513          	li	a0,0
    39d4:	fcf712e3          	bne	a4,a5,3998 <f64_lt_quiet+0x38>
    39d8:	00d59793          	slli	a5,a1,0xd
    39dc:	fa078ee3          	beqz	a5,3998 <f64_lt_quiet+0x38>
    39e0:	001867f3          	csrrs	a5,fflags,16
    39e4:	00000513          	li	a0,0
    39e8:	00008067          	ret
    39ec:	00c59713          	slli	a4,a1,0xc
    39f0:	f8070ae3          	beqz	a4,3984 <f64_lt_quiet+0x24>
    39f4:	00001737          	lui	a4,0x1
    39f8:	fff70613          	addi	a2,a4,-1 # fff <hls_init+0x43>
    39fc:	0337d693          	srli	a3,a5,0x33
    3a00:	00c6f6b3          	and	a3,a3,a2
    3a04:	ffe70713          	addi	a4,a4,-2
    3a08:	fae69ae3          	bne	a3,a4,39bc <f64_lt_quiet+0x5c>
    3a0c:	0300006f          	j	3a3c <f64_lt_quiet+0xdc>
    3a10:	f8b784e3          	beq	a5,a1,3998 <f64_lt_quiet+0x38>
    3a14:	00b7b7b3          	sltu	a5,a5,a1
    3a18:	40e7853b          	subw	a0,a5,a4
    3a1c:	00a03533          	snez	a0,a0
    3a20:	00008067          	ret
    3a24:	fff00513          	li	a0,-1
    3a28:	00b7e7b3          	or	a5,a5,a1
    3a2c:	00155513          	srli	a0,a0,0x1
    3a30:	00a7f7b3          	and	a5,a5,a0
    3a34:	00f03533          	snez	a0,a5
    3a38:	00008067          	ret
    3a3c:	00d79713          	slli	a4,a5,0xd
    3a40:	fa0710e3          	bnez	a4,39e0 <f64_lt_quiet+0x80>
    3a44:	f79ff06f          	j	39bc <f64_lt_quiet+0x5c>

0000000000003a48 <f64_mul>:
    3a48:	fb010113          	addi	sp,sp,-80
    3a4c:	02913c23          	sd	s1,56(sp)
    3a50:	fff00793          	li	a5,-1
    3a54:	03455493          	srli	s1,a0,0x34
    3a58:	00c7d793          	srli	a5,a5,0xc
    3a5c:	04813023          	sd	s0,64(sp)
    3a60:	03213823          	sd	s2,48(sp)
    3a64:	03313423          	sd	s3,40(sp)
    3a68:	03413023          	sd	s4,32(sp)
    3a6c:	0345d913          	srli	s2,a1,0x34
    3a70:	00a5c6b3          	xor	a3,a1,a0
    3a74:	7ff00713          	li	a4,2047
    3a78:	04113423          	sd	ra,72(sp)
    3a7c:	7ff4f493          	andi	s1,s1,2047
    3a80:	00f57a33          	and	s4,a0,a5
    3a84:	00e97933          	and	s2,s2,a4
    3a88:	00f5f433          	and	s0,a1,a5
    3a8c:	03f6d993          	srli	s3,a3,0x3f
    3a90:	04e48c63          	beq	s1,a4,3ae8 <f64_mul+0xa0>
    3a94:	0ae90863          	beq	s2,a4,3b44 <f64_mul+0xfc>
    3a98:	02048863          	beqz	s1,3ac8 <f64_mul+0x80>
    3a9c:	0e091263          	bnez	s2,3b80 <f64_mul+0x138>
    3aa0:	0c041263          	bnez	s0,3b64 <f64_mul+0x11c>
    3aa4:	03f99513          	slli	a0,s3,0x3f
    3aa8:	04813083          	ld	ra,72(sp)
    3aac:	04013403          	ld	s0,64(sp)
    3ab0:	03813483          	ld	s1,56(sp)
    3ab4:	03013903          	ld	s2,48(sp)
    3ab8:	02813983          	ld	s3,40(sp)
    3abc:	02013a03          	ld	s4,32(sp)
    3ac0:	05010113          	addi	sp,sp,80
    3ac4:	00008067          	ret
    3ac8:	fc0a0ee3          	beqz	s4,3aa4 <f64_mul+0x5c>
    3acc:	000a0513          	mv	a0,s4
    3ad0:	22c010ef          	jal	4cfc <softfloat_normSubnormalF64Sig>
    3ad4:	00b13423          	sd	a1,8(sp)
    3ad8:	00058a13          	mv	s4,a1
    3adc:	0005049b          	sext.w	s1,a0
    3ae0:	00a13023          	sd	a0,0(sp)
    3ae4:	fb9ff06f          	j	3a9c <f64_mul+0x54>
    3ae8:	020a1e63          	bnez	s4,3b24 <f64_mul+0xdc>
    3aec:	02990a63          	beq	s2,s1,3b20 <f64_mul+0xd8>
    3af0:	008967b3          	or	a5,s2,s0
    3af4:	04079e63          	bnez	a5,3b50 <f64_mul+0x108>
    3af8:	001867f3          	csrrs	a5,fflags,16
    3afc:	04813083          	ld	ra,72(sp)
    3b00:	fff00513          	li	a0,-1
    3b04:	04013403          	ld	s0,64(sp)
    3b08:	03813483          	ld	s1,56(sp)
    3b0c:	03013903          	ld	s2,48(sp)
    3b10:	02813983          	ld	s3,40(sp)
    3b14:	02013a03          	ld	s4,32(sp)
    3b18:	05010113          	addi	sp,sp,80
    3b1c:	00008067          	ret
    3b20:	fc0408e3          	beqz	s0,3af0 <f64_mul+0xa8>
    3b24:	04813083          	ld	ra,72(sp)
    3b28:	04013403          	ld	s0,64(sp)
    3b2c:	03813483          	ld	s1,56(sp)
    3b30:	03013903          	ld	s2,48(sp)
    3b34:	02813983          	ld	s3,40(sp)
    3b38:	02013a03          	ld	s4,32(sp)
    3b3c:	05010113          	addi	sp,sp,80
    3b40:	3410106f          	j	5680 <softfloat_propagateNaNF64UI>
    3b44:	0144e7b3          	or	a5,s1,s4
    3b48:	fc041ee3          	bnez	s0,3b24 <f64_mul+0xdc>
    3b4c:	fa0786e3          	beqz	a5,3af8 <f64_mul+0xb0>
    3b50:	7ff00793          	li	a5,2047
    3b54:	03f99513          	slli	a0,s3,0x3f
    3b58:	03479793          	slli	a5,a5,0x34
    3b5c:	00f50533          	add	a0,a0,a5
    3b60:	f49ff06f          	j	3aa8 <f64_mul+0x60>
    3b64:	00040513          	mv	a0,s0
    3b68:	194010ef          	jal	4cfc <softfloat_normSubnormalF64Sig>
    3b6c:	00b13423          	sd	a1,8(sp)
    3b70:	00058413          	mv	s0,a1
    3b74:	0005059b          	sext.w	a1,a0
    3b78:	00a13023          	sd	a0,0(sp)
    3b7c:	00058913          	mv	s2,a1
    3b80:	00100793          	li	a5,1
    3b84:	03479793          	slli	a5,a5,0x34
    3b88:	00f465b3          	or	a1,s0,a5
    3b8c:	00fa6533          	or	a0,s4,a5
    3b90:	00b59593          	slli	a1,a1,0xb
    3b94:	00a51513          	slli	a0,a0,0xa
    3b98:	0b5000ef          	jal	444c <softfloat_mul64To128>
    3b9c:	00a03633          	snez	a2,a0
    3ba0:	fff00793          	li	a5,-1
    3ba4:	00b13c23          	sd	a1,24(sp)
    3ba8:	00b66633          	or	a2,a2,a1
    3bac:	00a13823          	sd	a0,16(sp)
    3bb0:	0027d793          	srli	a5,a5,0x2
    3bb4:	012485bb          	addw	a1,s1,s2
    3bb8:	02c7e863          	bltu	a5,a2,3be8 <f64_mul+0x1a0>
    3bbc:	c005859b          	addiw	a1,a1,-1024
    3bc0:	00161613          	slli	a2,a2,0x1
    3bc4:	00098513          	mv	a0,s3
    3bc8:	04813083          	ld	ra,72(sp)
    3bcc:	04013403          	ld	s0,64(sp)
    3bd0:	03813483          	ld	s1,56(sp)
    3bd4:	03013903          	ld	s2,48(sp)
    3bd8:	02813983          	ld	s3,40(sp)
    3bdc:	02013a03          	ld	s4,32(sp)
    3be0:	05010113          	addi	sp,sp,80
    3be4:	2940106f          	j	4e78 <softfloat_roundPackToF64>
    3be8:	c015859b          	addiw	a1,a1,-1023
    3bec:	fd9ff06f          	j	3bc4 <f64_mul+0x17c>

0000000000003bf0 <f64_sqrt>:
    3bf0:	fb010113          	addi	sp,sp,-80
    3bf4:	04813023          	sd	s0,64(sp)
    3bf8:	fff00713          	li	a4,-1
    3bfc:	03455413          	srli	s0,a0,0x34
    3c00:	00c75713          	srli	a4,a4,0xc
    3c04:	04113423          	sd	ra,72(sp)
    3c08:	02913c23          	sd	s1,56(sp)
    3c0c:	03213823          	sd	s2,48(sp)
    3c10:	7ff47413          	andi	s0,s0,2047
    3c14:	7ff00693          	li	a3,2047
    3c18:	00e57733          	and	a4,a0,a4
    3c1c:	0cd40463          	beq	s0,a3,3ce4 <f64_sqrt+0xf4>
    3c20:	14054a63          	bltz	a0,3d74 <f64_sqrt+0x184>
    3c24:	02041c63          	bnez	s0,3c5c <f64_sqrt+0x6c>
    3c28:	00071e63          	bnez	a4,3c44 <f64_sqrt+0x54>
    3c2c:	04813083          	ld	ra,72(sp)
    3c30:	04013403          	ld	s0,64(sp)
    3c34:	03813483          	ld	s1,56(sp)
    3c38:	03013903          	ld	s2,48(sp)
    3c3c:	05010113          	addi	sp,sp,80
    3c40:	00008067          	ret
    3c44:	00070513          	mv	a0,a4
    3c48:	0b4010ef          	jal	4cfc <softfloat_normSubnormalF64Sig>
    3c4c:	00b13423          	sd	a1,8(sp)
    3c50:	00058713          	mv	a4,a1
    3c54:	0005041b          	sext.w	s0,a0
    3c58:	00a13023          	sd	a0,0(sp)
    3c5c:	00100913          	li	s2,1
    3c60:	03491913          	slli	s2,s2,0x34
    3c64:	01276933          	or	s2,a4,s2
    3c68:	01595593          	srli	a1,s2,0x15
    3c6c:	0005859b          	sext.w	a1,a1
    3c70:	00040513          	mv	a0,s0
    3c74:	738000ef          	jal	43ac <softfloat_estimateSqrt32>
    3c78:	c014049b          	addiw	s1,s0,-1023
    3c7c:	00900713          	li	a4,9
    3c80:	00147413          	andi	s0,s0,1
    3c84:	4087073b          	subw	a4,a4,s0
    3c88:	02051413          	slli	s0,a0,0x20
    3c8c:	00e91933          	sll	s2,s2,a4
    3c90:	02045413          	srli	s0,s0,0x20
    3c94:	02041613          	slli	a2,s0,0x20
    3c98:	00000593          	li	a1,0
    3c9c:	00090513          	mv	a0,s2
    3ca0:	5fc000ef          	jal	429c <softfloat_estimateDiv128To64>
    3ca4:	01e41413          	slli	s0,s0,0x1e
    3ca8:	00a40433          	add	s0,s0,a0
    3cac:	4014d49b          	sraiw	s1,s1,0x1
    3cb0:	1ff47713          	andi	a4,s0,511
    3cb4:	00500793          	li	a5,5
    3cb8:	3fe4849b          	addiw	s1,s1,1022
    3cbc:	04e7f863          	bleu	a4,a5,3d0c <f64_sqrt+0x11c>
    3cc0:	00040613          	mv	a2,s0
    3cc4:	00048593          	mv	a1,s1
    3cc8:	04813083          	ld	ra,72(sp)
    3ccc:	04013403          	ld	s0,64(sp)
    3cd0:	03813483          	ld	s1,56(sp)
    3cd4:	03013903          	ld	s2,48(sp)
    3cd8:	00000513          	li	a0,0
    3cdc:	05010113          	addi	sp,sp,80
    3ce0:	1980106f          	j	4e78 <softfloat_roundPackToF64>
    3ce4:	0a071263          	bnez	a4,3d88 <f64_sqrt+0x198>
    3ce8:	f40552e3          	bgez	a0,3c2c <f64_sqrt+0x3c>
    3cec:	001867f3          	csrrs	a5,fflags,16
    3cf0:	fff00513          	li	a0,-1
    3cf4:	04813083          	ld	ra,72(sp)
    3cf8:	04013403          	ld	s0,64(sp)
    3cfc:	03813483          	ld	s1,56(sp)
    3d00:	03013903          	ld	s2,48(sp)
    3d04:	05010113          	addi	sp,sp,80
    3d08:	00008067          	ret
    3d0c:	00040593          	mv	a1,s0
    3d10:	00040513          	mv	a0,s0
    3d14:	738000ef          	jal	444c <softfloat_mul64To128>
    3d18:	00050793          	mv	a5,a0
    3d1c:	00b13c23          	sd	a1,24(sp)
    3d20:	00058613          	mv	a2,a1
    3d24:	00050693          	mv	a3,a0
    3d28:	00000593          	li	a1,0
    3d2c:	00090513          	mv	a0,s2
    3d30:	00f13823          	sd	a5,16(sp)
    3d34:	4c0010ef          	jal	51f4 <softfloat_sub128>
    3d38:	0180006f          	j	3d50 <f64_sqrt+0x160>
    3d3c:	fff40413          	addi	s0,s0,-1 # 7fffff <_sbi_end+0x7f7fff>
    3d40:	00070513          	mv	a0,a4
    3d44:	00141693          	slli	a3,s0,0x1
    3d48:	03f45613          	srli	a2,s0,0x3f
    3d4c:	1ec000ef          	jal	3f38 <softfloat_add128>
    3d50:	02b13423          	sd	a1,40(sp)
    3d54:	00058713          	mv	a4,a1
    3d58:	02a13023          	sd	a0,32(sp)
    3d5c:	00050593          	mv	a1,a0
    3d60:	fc074ee3          	bltz	a4,3d3c <f64_sqrt+0x14c>
    3d64:	00a76533          	or	a0,a4,a0
    3d68:	00a03533          	snez	a0,a0
    3d6c:	00a46433          	or	s0,s0,a0
    3d70:	f51ff06f          	j	3cc0 <f64_sqrt+0xd0>
    3d74:	00e46433          	or	s0,s0,a4
    3d78:	ea040ae3          	beqz	s0,3c2c <f64_sqrt+0x3c>
    3d7c:	001867f3          	csrrs	a5,fflags,16
    3d80:	fff00513          	li	a0,-1
    3d84:	f71ff06f          	j	3cf4 <f64_sqrt+0x104>
    3d88:	04813083          	ld	ra,72(sp)
    3d8c:	04013403          	ld	s0,64(sp)
    3d90:	03813483          	ld	s1,56(sp)
    3d94:	03013903          	ld	s2,48(sp)
    3d98:	00000593          	li	a1,0
    3d9c:	05010113          	addi	sp,sp,80
    3da0:	0e10106f          	j	5680 <softfloat_propagateNaNF64UI>

0000000000003da4 <f64_to_f32>:
    3da4:	fc010113          	addi	sp,sp,-64
    3da8:	02913423          	sd	s1,40(sp)
    3dac:	fff00793          	li	a5,-1
    3db0:	03455493          	srli	s1,a0,0x34
    3db4:	02813823          	sd	s0,48(sp)
    3db8:	00c7d793          	srli	a5,a5,0xc
    3dbc:	02113c23          	sd	ra,56(sp)
    3dc0:	7ff4f493          	andi	s1,s1,2047
    3dc4:	7ff00713          	li	a4,2047
    3dc8:	03f55413          	srli	s0,a0,0x3f
    3dcc:	00f577b3          	and	a5,a0,a5
    3dd0:	02e48c63          	beq	s1,a4,3e08 <f64_to_f32+0x64>
    3dd4:	00078513          	mv	a0,a5
    3dd8:	01600593          	li	a1,22
    3ddc:	3f0010ef          	jal	51cc <softfloat_shortShift64RightJam>
    3de0:	0005051b          	sext.w	a0,a0
    3de4:	00a4e7b3          	or	a5,s1,a0
    3de8:	06079463          	bnez	a5,3e50 <f64_to_f32+0xac>
    3dec:	01f4141b          	slliw	s0,s0,0x1f
    3df0:	03813083          	ld	ra,56(sp)
    3df4:	00040513          	mv	a0,s0
    3df8:	02813483          	ld	s1,40(sp)
    3dfc:	03013403          	ld	s0,48(sp)
    3e00:	04010113          	addi	sp,sp,64
    3e04:	00008067          	ret
    3e08:	01f4141b          	slliw	s0,s0,0x1f
    3e0c:	7f800737          	lui	a4,0x7f800
    3e10:	00e4043b          	addw	s0,s0,a4
    3e14:	fc078ee3          	beqz	a5,3df0 <f64_to_f32+0x4c>
    3e18:	00050593          	mv	a1,a0
    3e1c:	00810513          	addi	a0,sp,8
    3e20:	7c8010ef          	jal	55e8 <softfloat_f64UIToCommonNaN>
    3e24:	00814403          	lbu	s0,8(sp)
    3e28:	800007b7          	lui	a5,0x80000
    3e2c:	03813083          	ld	ra,56(sp)
    3e30:	01f4141b          	slliw	s0,s0,0x1f
    3e34:	fff7c793          	not	a5,a5
    3e38:	00f46433          	or	s0,s0,a5
    3e3c:	00040513          	mv	a0,s0
    3e40:	02813483          	ld	s1,40(sp)
    3e44:	03013403          	ld	s0,48(sp)
    3e48:	04010113          	addi	sp,sp,64
    3e4c:	00008067          	ret
    3e50:	40000637          	lui	a2,0x40000
    3e54:	00c56633          	or	a2,a0,a2
    3e58:	c7f4859b          	addiw	a1,s1,-897
    3e5c:	00040513          	mv	a0,s0
    3e60:	03813083          	ld	ra,56(sp)
    3e64:	03013403          	ld	s0,48(sp)
    3e68:	02813483          	ld	s1,40(sp)
    3e6c:	04010113          	addi	sp,sp,64
    3e70:	6c90006f          	j	4d38 <softfloat_roundPackToF32>

0000000000003e74 <f64_to_ui64>:
    3e74:	fd010113          	addi	sp,sp,-48
    3e78:	03455813          	srli	a6,a0,0x34
    3e7c:	fff00893          	li	a7,-1
    3e80:	02813023          	sd	s0,32(sp)
    3e84:	00913c23          	sd	s1,24(sp)
    3e88:	01213823          	sd	s2,16(sp)
    3e8c:	00c8d793          	srli	a5,a7,0xc
    3e90:	02113423          	sd	ra,40(sp)
    3e94:	7ff87813          	andi	a6,a6,2047
    3e98:	00050413          	mv	s0,a0
    3e9c:	00060913          	mv	s2,a2
    3ea0:	00058493          	mv	s1,a1
    3ea4:	00f57533          	and	a0,a0,a5
    3ea8:	43300613          	li	a2,1075
    3eac:	04080063          	beqz	a6,3eec <f64_to_ui64+0x78>
    3eb0:	00100793          	li	a5,1
    3eb4:	03479793          	slli	a5,a5,0x34
    3eb8:	4106063b          	subw	a2,a2,a6
    3ebc:	00f56533          	or	a0,a0,a5
    3ec0:	02c04663          	bgtz	a2,3eec <f64_to_ui64+0x78>
    3ec4:	43e00793          	li	a5,1086
    3ec8:	0707d063          	ble	a6,a5,3f28 <f64_to_ui64+0xb4>
    3ecc:	001867f3          	csrrs	a5,fflags,16
    3ed0:	02813083          	ld	ra,40(sp)
    3ed4:	00088513          	mv	a0,a7
    3ed8:	02013403          	ld	s0,32(sp)
    3edc:	01813483          	ld	s1,24(sp)
    3ee0:	01013903          	ld	s2,16(sp)
    3ee4:	03010113          	addi	sp,sp,48
    3ee8:	00008067          	ret
    3eec:	00000593          	li	a1,0
    3ef0:	210010ef          	jal	5100 <softfloat_shift64ExtraRightJam>
    3ef4:	00b13423          	sd	a1,8(sp)
    3ef8:	00058613          	mv	a2,a1
    3efc:	00a13023          	sd	a0,0(sp)
    3f00:	00050593          	mv	a1,a0
    3f04:	00090713          	mv	a4,s2
    3f08:	00048693          	mv	a3,s1
    3f0c:	03f45513          	srli	a0,s0,0x3f
    3f10:	02813083          	ld	ra,40(sp)
    3f14:	02013403          	ld	s0,32(sp)
    3f18:	01813483          	ld	s1,24(sp)
    3f1c:	01013903          	ld	s2,16(sp)
    3f20:	03010113          	addi	sp,sp,48
    3f24:	0980106f          	j	4fbc <softfloat_roundPackToUI64>
    3f28:	40c005bb          	negw	a1,a2
    3f2c:	00b515b3          	sll	a1,a0,a1
    3f30:	00000613          	li	a2,0
    3f34:	fd1ff06f          	j	3f04 <f64_to_ui64+0x90>

0000000000003f38 <softfloat_add128>:
    3f38:	00d586b3          	add	a3,a1,a3
    3f3c:	00c50633          	add	a2,a0,a2
    3f40:	ff010113          	addi	sp,sp,-16
    3f44:	00b6b5b3          	sltu	a1,a3,a1
    3f48:	00068513          	mv	a0,a3
    3f4c:	00b605b3          	add	a1,a2,a1
    3f50:	01010113          	addi	sp,sp,16
    3f54:	00008067          	ret

0000000000003f58 <softfloat_addMagsF32>:
    3f58:	fd010113          	addi	sp,sp,-48
    3f5c:	01213823          	sd	s2,16(sp)
    3f60:	01313423          	sd	s3,8(sp)
    3f64:	0175591b          	srliw	s2,a0,0x17
    3f68:	0175d99b          	srliw	s3,a1,0x17
    3f6c:	008007b7          	lui	a5,0x800
    3f70:	fff7879b          	addiw	a5,a5,-1
    3f74:	0ff97913          	andi	s2,s2,255
    3f78:	0ff9f993          	andi	s3,s3,255
    3f7c:	02813023          	sd	s0,32(sp)
    3f80:	00913c23          	sd	s1,24(sp)
    3f84:	00f57433          	and	s0,a0,a5
    3f88:	01413023          	sd	s4,0(sp)
    3f8c:	00f5f7b3          	and	a5,a1,a5
    3f90:	02113423          	sd	ra,40(sp)
    3f94:	4139073b          	subw	a4,s2,s3
    3f98:	0064149b          	slliw	s1,s0,0x6
    3f9c:	00060a13          	mv	s4,a2
    3fa0:	0067941b          	slliw	s0,a5,0x6
    3fa4:	0ff00793          	li	a5,255
    3fa8:	04071063          	bnez	a4,3fe8 <softfloat_addMagsF32+0x90>
    3fac:	06f90e63          	beq	s2,a5,4028 <softfloat_addMagsF32+0xd0>
    3fb0:	10090063          	beqz	s2,40b0 <softfloat_addMagsF32+0x158>
    3fb4:	40000637          	lui	a2,0x40000
    3fb8:	00c4043b          	addw	s0,s0,a2
    3fbc:	0094063b          	addw	a2,s0,s1
    3fc0:	00090593          	mv	a1,s2
    3fc4:	000a0513          	mv	a0,s4
    3fc8:	02813083          	ld	ra,40(sp)
    3fcc:	02013403          	ld	s0,32(sp)
    3fd0:	01813483          	ld	s1,24(sp)
    3fd4:	01013903          	ld	s2,16(sp)
    3fd8:	00813983          	ld	s3,8(sp)
    3fdc:	00013a03          	ld	s4,0(sp)
    3fe0:	03010113          	addi	sp,sp,48
    3fe4:	5550006f          	j	4d38 <softfloat_roundPackToF32>
    3fe8:	06074463          	bltz	a4,4050 <softfloat_addMagsF32+0xf8>
    3fec:	0ef90e63          	beq	s2,a5,40e8 <softfloat_addMagsF32+0x190>
    3ff0:	20000537          	lui	a0,0x20000
    3ff4:	08098263          	beqz	s3,4078 <softfloat_addMagsF32+0x120>
    3ff8:	0085053b          	addw	a0,a0,s0
    3ffc:	00070593          	mv	a1,a4
    4000:	0d8010ef          	jal	50d8 <softfloat_shift32RightJam>
    4004:	00050413          	mv	s0,a0
    4008:	0084843b          	addw	s0,s1,s0
    400c:	200004b7          	lui	s1,0x20000
    4010:	0094063b          	addw	a2,s0,s1
    4014:	400007b7          	lui	a5,0x40000
    4018:	faf674e3          	bleu	a5,a2,3fc0 <softfloat_addMagsF32+0x68>
    401c:	fff9091b          	addiw	s2,s2,-1
    4020:	0016161b          	slliw	a2,a2,0x1
    4024:	f9dff06f          	j	3fc0 <softfloat_addMagsF32+0x68>
    4028:	0084e433          	or	s0,s1,s0
    402c:	06040263          	beqz	s0,4090 <softfloat_addMagsF32+0x138>
    4030:	02813083          	ld	ra,40(sp)
    4034:	02013403          	ld	s0,32(sp)
    4038:	01813483          	ld	s1,24(sp)
    403c:	01013903          	ld	s2,16(sp)
    4040:	00813983          	ld	s3,8(sp)
    4044:	00013a03          	ld	s4,0(sp)
    4048:	03010113          	addi	sp,sp,48
    404c:	5f00106f          	j	563c <softfloat_propagateNaNF32UI>
    4050:	02f98863          	beq	s3,a5,4080 <softfloat_addMagsF32+0x128>
    4054:	20000537          	lui	a0,0x20000
    4058:	00091463          	bnez	s2,4060 <softfloat_addMagsF32+0x108>
    405c:	00048513          	mv	a0,s1
    4060:	0095053b          	addw	a0,a0,s1
    4064:	40e005bb          	negw	a1,a4
    4068:	070010ef          	jal	50d8 <softfloat_shift32RightJam>
    406c:	00050493          	mv	s1,a0
    4070:	00098913          	mv	s2,s3
    4074:	f95ff06f          	j	4008 <softfloat_addMagsF32+0xb0>
    4078:	00040513          	mv	a0,s0
    407c:	f7dff06f          	j	3ff8 <softfloat_addMagsF32+0xa0>
    4080:	fa0418e3          	bnez	s0,4030 <softfloat_addMagsF32+0xd8>
    4084:	01f6179b          	slliw	a5,a2,0x1f
    4088:	7f800537          	lui	a0,0x7f800
    408c:	00a7853b          	addw	a0,a5,a0
    4090:	02813083          	ld	ra,40(sp)
    4094:	02013403          	ld	s0,32(sp)
    4098:	01813483          	ld	s1,24(sp)
    409c:	01013903          	ld	s2,16(sp)
    40a0:	00813983          	ld	s3,8(sp)
    40a4:	00013a03          	ld	s4,0(sp)
    40a8:	03010113          	addi	sp,sp,48
    40ac:	00008067          	ret
    40b0:	00b5053b          	addw	a0,a0,a1
    40b4:	02813083          	ld	ra,40(sp)
    40b8:	800005b7          	lui	a1,0x80000
    40bc:	fff5c593          	not	a1,a1
    40c0:	00b57533          	and	a0,a0,a1
    40c4:	01f6161b          	slliw	a2,a2,0x1f
    40c8:	00a6053b          	addw	a0,a2,a0
    40cc:	02013403          	ld	s0,32(sp)
    40d0:	01813483          	ld	s1,24(sp)
    40d4:	01013903          	ld	s2,16(sp)
    40d8:	00813983          	ld	s3,8(sp)
    40dc:	00013a03          	ld	s4,0(sp)
    40e0:	03010113          	addi	sp,sp,48
    40e4:	00008067          	ret
    40e8:	f40494e3          	bnez	s1,4030 <softfloat_addMagsF32+0xd8>
    40ec:	fa5ff06f          	j	4090 <softfloat_addMagsF32+0x138>

00000000000040f0 <softfloat_addMagsF64>:
    40f0:	fd010113          	addi	sp,sp,-48
    40f4:	01213823          	sd	s2,16(sp)
    40f8:	01313423          	sd	s3,8(sp)
    40fc:	03455913          	srli	s2,a0,0x34
    4100:	fff00693          	li	a3,-1
    4104:	0345d993          	srli	s3,a1,0x34
    4108:	00c6d793          	srli	a5,a3,0xc
    410c:	7ff97913          	andi	s2,s2,2047
    4110:	7ff9f993          	andi	s3,s3,2047
    4114:	02813023          	sd	s0,32(sp)
    4118:	00913c23          	sd	s1,24(sp)
    411c:	00f57433          	and	s0,a0,a5
    4120:	01413023          	sd	s4,0(sp)
    4124:	00f5f7b3          	and	a5,a1,a5
    4128:	02113423          	sd	ra,40(sp)
    412c:	4139073b          	subw	a4,s2,s3
    4130:	00941493          	slli	s1,s0,0x9
    4134:	00060a13          	mv	s4,a2
    4138:	00979413          	slli	s0,a5,0x9
    413c:	7ff00793          	li	a5,2047
    4140:	04071263          	bnez	a4,4184 <softfloat_addMagsF64+0x94>
    4144:	08f90663          	beq	s2,a5,41d0 <softfloat_addMagsF64+0xe0>
    4148:	10090c63          	beqz	s2,4260 <softfloat_addMagsF64+0x170>
    414c:	00100613          	li	a2,1
    4150:	03e61613          	slli	a2,a2,0x3e
    4154:	00c40433          	add	s0,s0,a2
    4158:	00940633          	add	a2,s0,s1
    415c:	00090593          	mv	a1,s2
    4160:	000a0513          	mv	a0,s4
    4164:	02813083          	ld	ra,40(sp)
    4168:	02013403          	ld	s0,32(sp)
    416c:	01813483          	ld	s1,24(sp)
    4170:	01013903          	ld	s2,16(sp)
    4174:	00813983          	ld	s3,8(sp)
    4178:	00013a03          	ld	s4,0(sp)
    417c:	03010113          	addi	sp,sp,48
    4180:	4f90006f          	j	4e78 <softfloat_roundPackToF64>
    4184:	06074a63          	bltz	a4,41f8 <softfloat_addMagsF64+0x108>
    4188:	10f90663          	beq	s2,a5,4294 <softfloat_addMagsF64+0x1a4>
    418c:	00100513          	li	a0,1
    4190:	03d51513          	slli	a0,a0,0x3d
    4194:	08098863          	beqz	s3,4224 <softfloat_addMagsF64+0x134>
    4198:	00850533          	add	a0,a0,s0
    419c:	00070593          	mv	a1,a4
    41a0:	7cd000ef          	jal	516c <softfloat_shift64RightJam>
    41a4:	00050413          	mv	s0,a0
    41a8:	00100613          	li	a2,1
    41ac:	00848433          	add	s0,s1,s0
    41b0:	fff00793          	li	a5,-1
    41b4:	03d61493          	slli	s1,a2,0x3d
    41b8:	00940633          	add	a2,s0,s1
    41bc:	0027d793          	srli	a5,a5,0x2
    41c0:	f8c7eee3          	bltu	a5,a2,415c <softfloat_addMagsF64+0x6c>
    41c4:	fff9091b          	addiw	s2,s2,-1
    41c8:	00161613          	slli	a2,a2,0x1
    41cc:	f91ff06f          	j	415c <softfloat_addMagsF64+0x6c>
    41d0:	0084e433          	or	s0,s1,s0
    41d4:	06040663          	beqz	s0,4240 <softfloat_addMagsF64+0x150>
    41d8:	02813083          	ld	ra,40(sp)
    41dc:	02013403          	ld	s0,32(sp)
    41e0:	01813483          	ld	s1,24(sp)
    41e4:	01013903          	ld	s2,16(sp)
    41e8:	00813983          	ld	s3,8(sp)
    41ec:	00013a03          	ld	s4,0(sp)
    41f0:	03010113          	addi	sp,sp,48
    41f4:	48c0106f          	j	5680 <softfloat_propagateNaNF64UI>
    41f8:	02f98a63          	beq	s3,a5,422c <softfloat_addMagsF64+0x13c>
    41fc:	00100513          	li	a0,1
    4200:	03d51513          	slli	a0,a0,0x3d
    4204:	00091463          	bnez	s2,420c <softfloat_addMagsF64+0x11c>
    4208:	00048513          	mv	a0,s1
    420c:	00950533          	add	a0,a0,s1
    4210:	40e005bb          	negw	a1,a4
    4214:	759000ef          	jal	516c <softfloat_shift64RightJam>
    4218:	00050493          	mv	s1,a0
    421c:	00098913          	mv	s2,s3
    4220:	f89ff06f          	j	41a8 <softfloat_addMagsF64+0xb8>
    4224:	00040513          	mv	a0,s0
    4228:	f71ff06f          	j	4198 <softfloat_addMagsF64+0xa8>
    422c:	fa0416e3          	bnez	s0,41d8 <softfloat_addMagsF64+0xe8>
    4230:	7ff00513          	li	a0,2047
    4234:	03f61793          	slli	a5,a2,0x3f
    4238:	03451513          	slli	a0,a0,0x34
    423c:	00a78533          	add	a0,a5,a0
    4240:	02813083          	ld	ra,40(sp)
    4244:	02013403          	ld	s0,32(sp)
    4248:	01813483          	ld	s1,24(sp)
    424c:	01013903          	ld	s2,16(sp)
    4250:	00813983          	ld	s3,8(sp)
    4254:	00013a03          	ld	s4,0(sp)
    4258:	03010113          	addi	sp,sp,48
    425c:	00008067          	ret
    4260:	02813083          	ld	ra,40(sp)
    4264:	00b50533          	add	a0,a0,a1
    4268:	0016d693          	srli	a3,a3,0x1
    426c:	00d57533          	and	a0,a0,a3
    4270:	03f61613          	slli	a2,a2,0x3f
    4274:	00a60533          	add	a0,a2,a0
    4278:	02013403          	ld	s0,32(sp)
    427c:	01813483          	ld	s1,24(sp)
    4280:	01013903          	ld	s2,16(sp)
    4284:	00813983          	ld	s3,8(sp)
    4288:	00013a03          	ld	s4,0(sp)
    428c:	03010113          	addi	sp,sp,48
    4290:	00008067          	ret
    4294:	f40492e3          	bnez	s1,41d8 <softfloat_addMagsF64+0xe8>
    4298:	fa9ff06f          	j	4240 <softfloat_addMagsF64+0x150>

000000000000429c <softfloat_estimateDiv128To64>:
    429c:	00c56663          	bltu	a0,a2,42a8 <softfloat_estimateDiv128To64+0xc>
    42a0:	fff00513          	li	a0,-1
    42a4:	00008067          	ret
    42a8:	fa010113          	addi	sp,sp,-96
    42ac:	05213023          	sd	s2,64(sp)
    42b0:	02065913          	srli	s2,a2,0x20
    42b4:	04813823          	sd	s0,80(sp)
    42b8:	03313c23          	sd	s3,56(sp)
    42bc:	fff00413          	li	s0,-1
    42c0:	04113c23          	sd	ra,88(sp)
    42c4:	04913423          	sd	s1,72(sp)
    42c8:	03413823          	sd	s4,48(sp)
    42cc:	03513423          	sd	s5,40(sp)
    42d0:	02091993          	slli	s3,s2,0x20
    42d4:	02041413          	slli	s0,s0,0x20
    42d8:	0d356463          	bltu	a0,s3,43a0 <softfloat_estimateDiv128To64+0x104>
    42dc:	00058a93          	mv	s5,a1
    42e0:	00050a13          	mv	s4,a0
    42e4:	00040593          	mv	a1,s0
    42e8:	00060513          	mv	a0,a2
    42ec:	00060493          	mv	s1,a2
    42f0:	15c000ef          	jal	444c <softfloat_mul64To128>
    42f4:	00050793          	mv	a5,a0
    42f8:	00b13423          	sd	a1,8(sp)
    42fc:	00058613          	mv	a2,a1
    4300:	00050693          	mv	a3,a0
    4304:	000a8593          	mv	a1,s5
    4308:	000a0513          	mv	a0,s4
    430c:	00f13023          	sd	a5,0(sp)
    4310:	6e5000ef          	jal	51f4 <softfloat_sub128>
    4314:	00b13c23          	sd	a1,24(sp)
    4318:	00058713          	mv	a4,a1
    431c:	00a13823          	sd	a0,16(sp)
    4320:	00050593          	mv	a1,a0
    4324:	02075c63          	bgez	a4,435c <softfloat_estimateDiv128To64+0xc0>
    4328:	fff00a13          	li	s4,-1
    432c:	02049493          	slli	s1,s1,0x20
    4330:	020a1a13          	slli	s4,s4,0x20
    4334:	00070513          	mv	a0,a4
    4338:	00048693          	mv	a3,s1
    433c:	00090613          	mv	a2,s2
    4340:	bf9ff0ef          	jal	3f38 <softfloat_add128>
    4344:	00b13c23          	sd	a1,24(sp)
    4348:	00058713          	mv	a4,a1
    434c:	00a13823          	sd	a0,16(sp)
    4350:	01440433          	add	s0,s0,s4
    4354:	00050593          	mv	a1,a0
    4358:	fc074ee3          	bltz	a4,4334 <softfloat_estimateDiv128To64+0x98>
    435c:	02071713          	slli	a4,a4,0x20
    4360:	0205d593          	srli	a1,a1,0x20
    4364:	fff00513          	li	a0,-1
    4368:	00b765b3          	or	a1,a4,a1
    436c:	02055513          	srli	a0,a0,0x20
    4370:	0135f463          	bleu	s3,a1,4378 <softfloat_estimateDiv128To64+0xdc>
    4374:	0325d533          	divu	a0,a1,s2
    4378:	05813083          	ld	ra,88(sp)
    437c:	00856533          	or	a0,a0,s0
    4380:	04813483          	ld	s1,72(sp)
    4384:	05013403          	ld	s0,80(sp)
    4388:	04013903          	ld	s2,64(sp)
    438c:	03813983          	ld	s3,56(sp)
    4390:	03013a03          	ld	s4,48(sp)
    4394:	02813a83          	ld	s5,40(sp)
    4398:	06010113          	addi	sp,sp,96
    439c:	00008067          	ret
    43a0:	03255433          	divu	s0,a0,s2
    43a4:	02041413          	slli	s0,s0,0x20
    43a8:	f35ff06f          	j	42dc <softfloat_estimateDiv128To64+0x40>

00000000000043ac <softfloat_estimateSqrt32>:
    43ac:	01b5d79b          	srliw	a5,a1,0x1b
    43b0:	00f7f793          	andi	a5,a5,15
    43b4:	00179793          	slli	a5,a5,0x1
    43b8:	00002717          	auipc	a4,0x2
    43bc:	ef870713          	addi	a4,a4,-264 # 62b0 <sqrtOddAdjustments.1630>
    43c0:	00157513          	andi	a0,a0,1
    43c4:	00f707b3          	add	a5,a4,a5
    43c8:	04050663          	beqz	a0,4414 <softfloat_estimateSqrt32+0x68>
    43cc:	0007d503          	lhu	a0,0(a5) # 40000000 <_end+0x3f7be090>
    43d0:	00004737          	lui	a4,0x4
    43d4:	0115d79b          	srliw	a5,a1,0x11
    43d8:	00e787bb          	addw	a5,a5,a4
    43dc:	40a7873b          	subw	a4,a5,a0
    43e0:	02e5d7bb          	divuw	a5,a1,a4
    43e4:	00f7171b          	slliw	a4,a4,0xf
    43e8:	0015d59b          	srliw	a1,a1,0x1
    43ec:	00e7979b          	slliw	a5,a5,0xe
    43f0:	00e7873b          	addw	a4,a5,a4
    43f4:	02059793          	slli	a5,a1,0x20
    43f8:	02071513          	slli	a0,a4,0x20
    43fc:	02055513          	srli	a0,a0,0x20
    4400:	0017d793          	srli	a5,a5,0x1
    4404:	02a7d7b3          	divu	a5,a5,a0
    4408:	0017559b          	srliw	a1,a4,0x1
    440c:	00b7853b          	addw	a0,a5,a1
    4410:	00008067          	ret
    4414:	0207d683          	lhu	a3,32(a5)
    4418:	0115d71b          	srliw	a4,a1,0x11
    441c:	000087b7          	lui	a5,0x8
    4420:	00f707bb          	addw	a5,a4,a5
    4424:	40d787bb          	subw	a5,a5,a3
    4428:	02f5d6bb          	divuw	a3,a1,a5
    442c:	ffff8737          	lui	a4,0xffff8
    4430:	00d787bb          	addw	a5,a5,a3
    4434:	000206b7          	lui	a3,0x20
    4438:	00d7f463          	bleu	a3,a5,4440 <softfloat_estimateSqrt32+0x94>
    443c:	00f7971b          	slliw	a4,a5,0xf
    4440:	fae5eae3          	bltu	a1,a4,43f4 <softfloat_estimateSqrt32+0x48>
    4444:	4015d51b          	sraiw	a0,a1,0x1
    4448:	00008067          	ret

000000000000444c <softfloat_mul64To128>:
    444c:	fff00793          	li	a5,-1
    4450:	0207d793          	srli	a5,a5,0x20
    4454:	02055713          	srli	a4,a0,0x20
    4458:	0205d813          	srli	a6,a1,0x20
    445c:	00f57533          	and	a0,a0,a5
    4460:	00f5f5b3          	and	a1,a1,a5
    4464:	02b70633          	mul	a2,a4,a1
    4468:	ff010113          	addi	sp,sp,-16
    446c:	00000693          	li	a3,0
    4470:	02a807b3          	mul	a5,a6,a0
    4474:	00c787b3          	add	a5,a5,a2
    4478:	02b50533          	mul	a0,a0,a1
    447c:	030705b3          	mul	a1,a4,a6
    4480:	00c7f663          	bleu	a2,a5,448c <softfloat_mul64To128+0x40>
    4484:	00100693          	li	a3,1
    4488:	02069693          	slli	a3,a3,0x20
    448c:	02079713          	slli	a4,a5,0x20
    4490:	00e50533          	add	a0,a0,a4
    4494:	0207d793          	srli	a5,a5,0x20
    4498:	00e53733          	sltu	a4,a0,a4
    449c:	00d7e7b3          	or	a5,a5,a3
    44a0:	00b705b3          	add	a1,a4,a1
    44a4:	00b785b3          	add	a1,a5,a1
    44a8:	01010113          	addi	sp,sp,16
    44ac:	00008067          	ret

00000000000044b0 <softfloat_mulAddF32>:
    44b0:	ffe5089b          	addiw	a7,a0,-2
    44b4:	f9010113          	addi	sp,sp,-112
    44b8:	01f6571b          	srliw	a4,a2,0x1f
    44bc:	fff5079b          	addiw	a5,a0,-1
    44c0:	0018b893          	seqz	a7,a7
    44c4:	00058313          	mv	t1,a1
    44c8:	01f6d81b          	srliw	a6,a3,0x1f
    44cc:	00e8c8b3          	xor	a7,a7,a4
    44d0:	05413023          	sd	s4,64(sp)
    44d4:	0017b793          	seqz	a5,a5
    44d8:	0175da1b          	srliw	s4,a1,0x17
    44dc:	00800737          	lui	a4,0x800
    44e0:	01f5d59b          	srliw	a1,a1,0x1f
    44e4:	fff7071b          	addiw	a4,a4,-1
    44e8:	0107c7b3          	xor	a5,a5,a6
    44ec:	06813023          	sd	s0,96(sp)
    44f0:	0ff00813          	li	a6,255
    44f4:	0176d41b          	srliw	s0,a3,0x17
    44f8:	04913c23          	sd	s1,88(sp)
    44fc:	05213823          	sd	s2,80(sp)
    4500:	05313423          	sd	s3,72(sp)
    4504:	03513c23          	sd	s5,56(sp)
    4508:	03613823          	sd	s6,48(sp)
    450c:	03713423          	sd	s7,40(sp)
    4510:	0176549b          	srliw	s1,a2,0x17
    4514:	00b8c5b3          	xor	a1,a7,a1
    4518:	06113423          	sd	ra,104(sp)
    451c:	0ffa7a13          	andi	s4,s4,255
    4520:	01047bb3          	and	s7,s0,a6
    4524:	00e37933          	and	s2,t1,a4
    4528:	0104f4b3          	and	s1,s1,a6
    452c:	00e679b3          	and	s3,a2,a4
    4530:	0ff7fb13          	andi	s6,a5,255
    4534:	00e6f433          	and	s0,a3,a4
    4538:	0ff5fa93          	andi	s5,a1,255
    453c:	110a0663          	beq	s4,a6,4648 <softfloat_mulAddF32+0x198>
    4540:	15048863          	beq	s1,a6,4690 <softfloat_mulAddF32+0x1e0>
    4544:	190b8263          	beq	s7,a6,46c8 <softfloat_mulAddF32+0x218>
    4548:	060a1863          	bnez	s4,45b8 <softfloat_mulAddF32+0x108>
    454c:	04091a63          	bnez	s2,45a0 <softfloat_mulAddF32+0xf0>
    4550:	008be733          	or	a4,s7,s0
    4554:	1a071463          	bnez	a4,46fc <softfloat_mulAddF32+0x24c>
    4558:	1b6a8263          	beq	s5,s6,46fc <softfloat_mulAddF32+0x24c>
    455c:	ffe2051b          	addiw	a0,tp,-2
    4560:	00153513          	seqz	a0,a0
    4564:	40a0053b          	negw	a0,a0
    4568:	800007b7          	lui	a5,0x80000
    456c:	00f577b3          	and	a5,a0,a5
    4570:	06813083          	ld	ra,104(sp)
    4574:	00078513          	mv	a0,a5
    4578:	06013403          	ld	s0,96(sp)
    457c:	05813483          	ld	s1,88(sp)
    4580:	05013903          	ld	s2,80(sp)
    4584:	04813983          	ld	s3,72(sp)
    4588:	04013a03          	ld	s4,64(sp)
    458c:	03813a83          	ld	s5,56(sp)
    4590:	03013b03          	ld	s6,48(sp)
    4594:	02813b83          	ld	s7,40(sp)
    4598:	07010113          	addi	sp,sp,112
    459c:	00008067          	ret
    45a0:	00090513          	mv	a0,s2
    45a4:	00d13423          	sd	a3,8(sp)
    45a8:	710000ef          	jal	4cb8 <softfloat_normSubnormalF32Sig>
    45ac:	00813683          	ld	a3,8(sp)
    45b0:	00050a1b          	sext.w	s4,a0
    45b4:	42055913          	srai	s2,a0,0x20
    45b8:	12048663          	beqz	s1,46e4 <softfloat_mulAddF32+0x234>
    45bc:	008007b7          	lui	a5,0x800
    45c0:	00f96933          	or	s2,s2,a5
    45c4:	00f9e9b3          	or	s3,s3,a5
    45c8:	0079191b          	slliw	s2,s2,0x7
    45cc:	0079999b          	slliw	s3,s3,0x7
    45d0:	02091693          	slli	a3,s2,0x20
    45d4:	02099913          	slli	s2,s3,0x20
    45d8:	0206d693          	srli	a3,a3,0x20
    45dc:	02095913          	srli	s2,s2,0x20
    45e0:	03268933          	mul	s2,a3,s2
    45e4:	fff00793          	li	a5,-1
    45e8:	0037d793          	srli	a5,a5,0x3
    45ec:	009a04bb          	addw	s1,s4,s1
    45f0:	1927f263          	bleu	s2,a5,4774 <softfloat_mulAddF32+0x2c4>
    45f4:	f824849b          	addiw	s1,s1,-126
    45f8:	100b9e63          	bnez	s7,4714 <softfloat_mulAddF32+0x264>
    45fc:	10041463          	bnez	s0,4704 <softfloat_mulAddF32+0x254>
    4600:	01f00593          	li	a1,31
    4604:	00090513          	mv	a0,s2
    4608:	3c5000ef          	jal	51cc <softfloat_shortShift64RightJam>
    460c:	fff4849b          	addiw	s1,s1,-1
    4610:	0005061b          	sext.w	a2,a0
    4614:	00048593          	mv	a1,s1
    4618:	000a8513          	mv	a0,s5
    461c:	06813083          	ld	ra,104(sp)
    4620:	06013403          	ld	s0,96(sp)
    4624:	05813483          	ld	s1,88(sp)
    4628:	05013903          	ld	s2,80(sp)
    462c:	04813983          	ld	s3,72(sp)
    4630:	04013a03          	ld	s4,64(sp)
    4634:	03813a83          	ld	s5,56(sp)
    4638:	03013b03          	ld	s6,48(sp)
    463c:	02813b83          	ld	s7,40(sp)
    4640:	07010113          	addi	sp,sp,112
    4644:	6f40006f          	j	4d38 <softfloat_roundPackToF32>
    4648:	08090663          	beqz	s2,46d4 <softfloat_mulAddF32+0x224>
    464c:	00060593          	mv	a1,a2
    4650:	00030513          	mv	a0,t1
    4654:	00d13423          	sd	a3,8(sp)
    4658:	7e5000ef          	jal	563c <softfloat_propagateNaNF32UI>
    465c:	00813683          	ld	a3,8(sp)
    4660:	06813083          	ld	ra,104(sp)
    4664:	06013403          	ld	s0,96(sp)
    4668:	05813483          	ld	s1,88(sp)
    466c:	05013903          	ld	s2,80(sp)
    4670:	04813983          	ld	s3,72(sp)
    4674:	04013a03          	ld	s4,64(sp)
    4678:	03813a83          	ld	s5,56(sp)
    467c:	03013b03          	ld	s6,48(sp)
    4680:	02813b83          	ld	s7,40(sp)
    4684:	00068593          	mv	a1,a3
    4688:	07010113          	addi	sp,sp,112
    468c:	7b10006f          	j	563c <softfloat_propagateNaNF32UI>
    4690:	012a64b3          	or	s1,s4,s2
    4694:	fa099ce3          	bnez	s3,464c <softfloat_mulAddF32+0x19c>
    4698:	02048263          	beqz	s1,46bc <softfloat_mulAddF32+0x20c>
    469c:	01fa979b          	slliw	a5,s5,0x1f
    46a0:	7f800537          	lui	a0,0x7f800
    46a4:	00a7853b          	addw	a0,a5,a0
    46a8:	0ff00713          	li	a4,255
    46ac:	00050793          	mv	a5,a0
    46b0:	eceb90e3          	bne	s7,a4,4570 <softfloat_mulAddF32+0xc0>
    46b4:	fa0416e3          	bnez	s0,4660 <softfloat_mulAddF32+0x1b0>
    46b8:	eb6a8ce3          	beq	s5,s6,4570 <softfloat_mulAddF32+0xc0>
    46bc:	001867f3          	csrrs	a5,fflags,16
    46c0:	fff00513          	li	a0,-1
    46c4:	f9dff06f          	j	4660 <softfloat_mulAddF32+0x1b0>
    46c8:	02040a63          	beqz	s0,46fc <softfloat_mulAddF32+0x24c>
    46cc:	00000513          	li	a0,0
    46d0:	f91ff06f          	j	4660 <softfloat_mulAddF32+0x1b0>
    46d4:	0b448663          	beq	s1,s4,4780 <softfloat_mulAddF32+0x2d0>
    46d8:	0134e4b3          	or	s1,s1,s3
    46dc:	fe0480e3          	beqz	s1,46bc <softfloat_mulAddF32+0x20c>
    46e0:	fbdff06f          	j	469c <softfloat_mulAddF32+0x1ec>
    46e4:	e60986e3          	beqz	s3,4550 <softfloat_mulAddF32+0xa0>
    46e8:	00098513          	mv	a0,s3
    46ec:	5cc000ef          	jal	4cb8 <softfloat_normSubnormalF32Sig>
    46f0:	0005049b          	sext.w	s1,a0
    46f4:	42055993          	srai	s3,a0,0x20
    46f8:	ec5ff06f          	j	45bc <softfloat_mulAddF32+0x10c>
    46fc:	00068793          	mv	a5,a3
    4700:	e71ff06f          	j	4570 <softfloat_mulAddF32+0xc0>
    4704:	00040513          	mv	a0,s0
    4708:	5b0000ef          	jal	4cb8 <softfloat_normSubnormalF32Sig>
    470c:	00050b9b          	sext.w	s7,a0
    4710:	42055413          	srai	s0,a0,0x20
    4714:	00800737          	lui	a4,0x800
    4718:	00e46733          	or	a4,s0,a4
    471c:	0067141b          	slliw	s0,a4,0x6
    4720:	417485bb          	subw	a1,s1,s7
    4724:	076a8463          	beq	s5,s6,478c <softfloat_mulAddF32+0x2dc>
    4728:	02041413          	slli	s0,s0,0x20
    472c:	0a05c063          	bltz	a1,47cc <softfloat_mulAddF32+0x31c>
    4730:	08059663          	bnez	a1,47bc <softfloat_mulAddF32+0x30c>
    4734:	40890933          	sub	s2,s2,s0
    4738:	e20902e3          	beqz	s2,455c <softfloat_mulAddF32+0xac>
    473c:	0c094463          	bltz	s2,4804 <softfloat_mulAddF32+0x354>
    4740:	00090513          	mv	a0,s2
    4744:	7d9000ef          	jal	571c <softfloat_countLeadingZeros64>
    4748:	fff5079b          	addiw	a5,a0,-1
    474c:	0009061b          	sext.w	a2,s2
    4750:	fdf5051b          	addiw	a0,a0,-33
    4754:	40f484bb          	subw	s1,s1,a5
    4758:	00a6163b          	sllw	a2,a2,a0
    475c:	ea055ce3          	bgez	a0,4614 <softfloat_mulAddF32+0x164>
    4760:	40a005bb          	negw	a1,a0
    4764:	00090513          	mv	a0,s2
    4768:	265000ef          	jal	51cc <softfloat_shortShift64RightJam>
    476c:	0005061b          	sext.w	a2,a0
    4770:	ea5ff06f          	j	4614 <softfloat_mulAddF32+0x164>
    4774:	f814849b          	addiw	s1,s1,-127
    4778:	00191913          	slli	s2,s2,0x1
    477c:	e7dff06f          	j	45f8 <softfloat_mulAddF32+0x148>
    4780:	ec0996e3          	bnez	s3,464c <softfloat_mulAddF32+0x19c>
    4784:	0134e4b3          	or	s1,s1,s3
    4788:	f55ff06f          	j	46dc <softfloat_mulAddF32+0x22c>
    478c:	04b05e63          	blez	a1,47e8 <softfloat_mulAddF32+0x338>
    4790:	02041513          	slli	a0,s0,0x20
    4794:	1d9000ef          	jal	516c <softfloat_shift64RightJam>
    4798:	02000593          	li	a1,32
    479c:	00a90533          	add	a0,s2,a0
    47a0:	22d000ef          	jal	51cc <softfloat_shortShift64RightJam>
    47a4:	0005061b          	sext.w	a2,a0
    47a8:	400007b7          	lui	a5,0x40000
    47ac:	e6f674e3          	bleu	a5,a2,4614 <softfloat_mulAddF32+0x164>
    47b0:	fff4849b          	addiw	s1,s1,-1
    47b4:	0016161b          	slliw	a2,a2,0x1
    47b8:	e5dff06f          	j	4614 <softfloat_mulAddF32+0x164>
    47bc:	00040513          	mv	a0,s0
    47c0:	1ad000ef          	jal	516c <softfloat_shift64RightJam>
    47c4:	40a90933          	sub	s2,s2,a0
    47c8:	f79ff06f          	j	4740 <softfloat_mulAddF32+0x290>
    47cc:	00090513          	mv	a0,s2
    47d0:	40b005bb          	negw	a1,a1
    47d4:	199000ef          	jal	516c <softfloat_shift64RightJam>
    47d8:	40a40933          	sub	s2,s0,a0
    47dc:	000b8493          	mv	s1,s7
    47e0:	000b0a93          	mv	s5,s6
    47e4:	f5dff06f          	j	4740 <softfloat_mulAddF32+0x290>
    47e8:	02000793          	li	a5,32
    47ec:	40b785bb          	subw	a1,a5,a1
    47f0:	00090513          	mv	a0,s2
    47f4:	179000ef          	jal	516c <softfloat_shift64RightJam>
    47f8:	0085063b          	addw	a2,a0,s0
    47fc:	000b8493          	mv	s1,s7
    4800:	fa9ff06f          	j	47a8 <softfloat_mulAddF32+0x2f8>
    4804:	001aca93          	xori	s5,s5,1
    4808:	41200933          	neg	s2,s2
    480c:	f35ff06f          	j	4740 <softfloat_mulAddF32+0x290>

0000000000004810 <softfloat_mulAddF64>:
    4810:	4015579b          	sraiw	a5,a0,0x1
    4814:	f6010113          	addi	sp,sp,-160
    4818:	00058e13          	mv	t3,a1
    481c:	0017f593          	andi	a1,a5,1
    4820:	03f65793          	srli	a5,a2,0x3f
    4824:	00f5c833          	xor	a6,a1,a5
    4828:	08913423          	sd	s1,136(sp)
    482c:	03fe5593          	srli	a1,t3,0x3f
    4830:	034e5493          	srli	s1,t3,0x34
    4834:	fff00793          	li	a5,-1
    4838:	00c7d793          	srli	a5,a5,0xc
    483c:	00b845b3          	xor	a1,a6,a1
    4840:	08813823          	sd	s0,144(sp)
    4844:	7ff00813          	li	a6,2047
    4848:	0346d413          	srli	s0,a3,0x34
    484c:	09213023          	sd	s2,128(sp)
    4850:	07313c23          	sd	s3,120(sp)
    4854:	07413823          	sd	s4,112(sp)
    4858:	07513423          	sd	s5,104(sp)
    485c:	07613023          	sd	s6,96(sp)
    4860:	05813823          	sd	s8,80(sp)
    4864:	03465313          	srli	t1,a2,0x34
    4868:	03f6d893          	srli	a7,a3,0x3f
    486c:	00157713          	andi	a4,a0,1
    4870:	08113c23          	sd	ra,152(sp)
    4874:	05713c23          	sd	s7,88(sp)
    4878:	7ff4f493          	andi	s1,s1,2047
    487c:	01047a33          	and	s4,s0,a6
    4880:	00fe7b33          	and	s6,t3,a5
    4884:	01037c33          	and	s8,t1,a6
    4888:	00f67933          	and	s2,a2,a5
    488c:	01174ab3          	xor	s5,a4,a7
    4890:	00f6f433          	and	s0,a3,a5
    4894:	0ff5f993          	andi	s3,a1,255
    4898:	15048063          	beq	s1,a6,49d8 <softfloat_mulAddF64+0x1c8>
    489c:	190c0463          	beq	s8,a6,4a24 <softfloat_mulAddF64+0x214>
    48a0:	1b0a0e63          	beq	s4,a6,4a5c <softfloat_mulAddF64+0x24c>
    48a4:	08049063          	bnez	s1,4924 <softfloat_mulAddF64+0x114>
    48a8:	040b1c63          	bnez	s6,4900 <softfloat_mulAddF64+0xf0>
    48ac:	008a67b3          	or	a5,s4,s0
    48b0:	1c079263          	bnez	a5,4a74 <softfloat_mulAddF64+0x264>
    48b4:	1d598063          	beq	s3,s5,4a74 <softfloat_mulAddF64+0x264>
    48b8:	fff00793          	li	a5,-1
    48bc:	00200713          	li	a4,2
    48c0:	03f79793          	slli	a5,a5,0x3f
    48c4:	00e20463          	beq	tp,a4,48cc <softfloat_mulAddF64+0xbc>
    48c8:	00000793          	li	a5,0
    48cc:	09813083          	ld	ra,152(sp)
    48d0:	00078513          	mv	a0,a5
    48d4:	09013403          	ld	s0,144(sp)
    48d8:	08813483          	ld	s1,136(sp)
    48dc:	08013903          	ld	s2,128(sp)
    48e0:	07813983          	ld	s3,120(sp)
    48e4:	07013a03          	ld	s4,112(sp)
    48e8:	06813a83          	ld	s5,104(sp)
    48ec:	06013b03          	ld	s6,96(sp)
    48f0:	05813b83          	ld	s7,88(sp)
    48f4:	05013c03          	ld	s8,80(sp)
    48f8:	0a010113          	addi	sp,sp,160
    48fc:	00008067          	ret
    4900:	000b0513          	mv	a0,s6
    4904:	00d13423          	sd	a3,8(sp)
    4908:	3f4000ef          	jal	4cfc <softfloat_normSubnormalF64Sig>
    490c:	00813683          	ld	a3,8(sp)
    4910:	0005079b          	sext.w	a5,a0
    4914:	00b13c23          	sd	a1,24(sp)
    4918:	00058b13          	mv	s6,a1
    491c:	00a13823          	sd	a0,16(sp)
    4920:	00078493          	mv	s1,a5
    4924:	020c1263          	bnez	s8,4948 <softfloat_mulAddF64+0x138>
    4928:	f80902e3          	beqz	s2,48ac <softfloat_mulAddF64+0x9c>
    492c:	00090513          	mv	a0,s2
    4930:	3cc000ef          	jal	4cfc <softfloat_normSubnormalF64Sig>
    4934:	0005031b          	sext.w	t1,a0
    4938:	00b13c23          	sd	a1,24(sp)
    493c:	00058913          	mv	s2,a1
    4940:	00a13823          	sd	a0,16(sp)
    4944:	00030c13          	mv	s8,t1
    4948:	00100b93          	li	s7,1
    494c:	034b9513          	slli	a0,s7,0x34
    4950:	00a965b3          	or	a1,s2,a0
    4954:	00ab6533          	or	a0,s6,a0
    4958:	00a59593          	slli	a1,a1,0xa
    495c:	00a51513          	slli	a0,a0,0xa
    4960:	aedff0ef          	jal	444c <softfloat_mul64To128>
    4964:	fff00713          	li	a4,-1
    4968:	02b13423          	sd	a1,40(sp)
    496c:	02a13023          	sd	a0,32(sp)
    4970:	00375713          	srli	a4,a4,0x3
    4974:	00058913          	mv	s2,a1
    4978:	018484bb          	addw	s1,s1,s8
    497c:	00050b13          	mv	s6,a0
    4980:	22b77c63          	bleu	a1,a4,4bb8 <softfloat_mulAddF64+0x3a8>
    4984:	c024849b          	addiw	s1,s1,-1022
    4988:	100a1863          	bnez	s4,4a98 <softfloat_mulAddF64+0x288>
    498c:	0e041863          	bnez	s0,4a7c <softfloat_mulAddF64+0x26c>
    4990:	00191913          	slli	s2,s2,0x1
    4994:	01603533          	snez	a0,s6
    4998:	fff4849b          	addiw	s1,s1,-1
    499c:	00a96633          	or	a2,s2,a0
    49a0:	00048593          	mv	a1,s1
    49a4:	00098513          	mv	a0,s3
    49a8:	09813083          	ld	ra,152(sp)
    49ac:	09013403          	ld	s0,144(sp)
    49b0:	08813483          	ld	s1,136(sp)
    49b4:	08013903          	ld	s2,128(sp)
    49b8:	07813983          	ld	s3,120(sp)
    49bc:	07013a03          	ld	s4,112(sp)
    49c0:	06813a83          	ld	s5,104(sp)
    49c4:	06013b03          	ld	s6,96(sp)
    49c8:	05813b83          	ld	s7,88(sp)
    49cc:	05013c03          	ld	s8,80(sp)
    49d0:	0a010113          	addi	sp,sp,160
    49d4:	4a40006f          	j	4e78 <softfloat_roundPackToF64>
    49d8:	080b0863          	beqz	s6,4a68 <softfloat_mulAddF64+0x258>
    49dc:	00060593          	mv	a1,a2
    49e0:	000e0513          	mv	a0,t3
    49e4:	00d13423          	sd	a3,8(sp)
    49e8:	499000ef          	jal	5680 <softfloat_propagateNaNF64UI>
    49ec:	00813683          	ld	a3,8(sp)
    49f0:	09813083          	ld	ra,152(sp)
    49f4:	09013403          	ld	s0,144(sp)
    49f8:	08813483          	ld	s1,136(sp)
    49fc:	08013903          	ld	s2,128(sp)
    4a00:	07813983          	ld	s3,120(sp)
    4a04:	07013a03          	ld	s4,112(sp)
    4a08:	06813a83          	ld	s5,104(sp)
    4a0c:	06013b03          	ld	s6,96(sp)
    4a10:	05813b83          	ld	s7,88(sp)
    4a14:	05013c03          	ld	s8,80(sp)
    4a18:	00068593          	mv	a1,a3
    4a1c:	0a010113          	addi	sp,sp,160
    4a20:	4610006f          	j	5680 <softfloat_propagateNaNF64UI>
    4a24:	fa091ce3          	bnez	s2,49dc <softfloat_mulAddF64+0x1cc>
    4a28:	0164e933          	or	s2,s1,s6
    4a2c:	02090263          	beqz	s2,4a50 <softfloat_mulAddF64+0x240>
    4a30:	7ff00713          	li	a4,2047
    4a34:	03471793          	slli	a5,a4,0x34
    4a38:	03f99513          	slli	a0,s3,0x3f
    4a3c:	00f50533          	add	a0,a0,a5
    4a40:	00050793          	mv	a5,a0
    4a44:	e8ea14e3          	bne	s4,a4,48cc <softfloat_mulAddF64+0xbc>
    4a48:	fa0414e3          	bnez	s0,49f0 <softfloat_mulAddF64+0x1e0>
    4a4c:	e95980e3          	beq	s3,s5,48cc <softfloat_mulAddF64+0xbc>
    4a50:	001867f3          	csrrs	a5,fflags,16
    4a54:	fff00513          	li	a0,-1
    4a58:	f99ff06f          	j	49f0 <softfloat_mulAddF64+0x1e0>
    4a5c:	00040c63          	beqz	s0,4a74 <softfloat_mulAddF64+0x264>
    4a60:	00000513          	li	a0,0
    4a64:	f8dff06f          	j	49f0 <softfloat_mulAddF64+0x1e0>
    4a68:	0c9c0663          	beq	s8,s1,4b34 <softfloat_mulAddF64+0x324>
    4a6c:	012c6933          	or	s2,s8,s2
    4a70:	fbdff06f          	j	4a2c <softfloat_mulAddF64+0x21c>
    4a74:	00068793          	mv	a5,a3
    4a78:	e55ff06f          	j	48cc <softfloat_mulAddF64+0xbc>
    4a7c:	00040513          	mv	a0,s0
    4a80:	27c000ef          	jal	4cfc <softfloat_normSubnormalF64Sig>
    4a84:	0005079b          	sext.w	a5,a0
    4a88:	00b13c23          	sd	a1,24(sp)
    4a8c:	00058413          	mv	s0,a1
    4a90:	00a13823          	sd	a0,16(sp)
    4a94:	00078a13          	mv	s4,a5
    4a98:	00100793          	li	a5,1
    4a9c:	03479793          	slli	a5,a5,0x34
    4aa0:	00f467b3          	or	a5,s0,a5
    4aa4:	00979413          	slli	s0,a5,0x9
    4aa8:	4144863b          	subw	a2,s1,s4
    4aac:	17598a63          	beq	s3,s5,4c20 <softfloat_mulAddF64+0x410>
    4ab0:	08064863          	bltz	a2,4b40 <softfloat_mulAddF64+0x330>
    4ab4:	12061663          	bnez	a2,4be0 <softfloat_mulAddF64+0x3d0>
    4ab8:	00040613          	mv	a2,s0
    4abc:	00090513          	mv	a0,s2
    4ac0:	00000693          	li	a3,0
    4ac4:	000b0593          	mv	a1,s6
    4ac8:	72c000ef          	jal	51f4 <softfloat_sub128>
    4acc:	04b13423          	sd	a1,72(sp)
    4ad0:	04a13023          	sd	a0,64(sp)
    4ad4:	00a5e7b3          	or	a5,a1,a0
    4ad8:	00058413          	mv	s0,a1
    4adc:	00050913          	mv	s2,a0
    4ae0:	dc078ce3          	beqz	a5,48b8 <softfloat_mulAddF64+0xa8>
    4ae4:	0a05c463          	bltz	a1,4b8c <softfloat_mulAddF64+0x37c>
    4ae8:	00041863          	bnez	s0,4af8 <softfloat_mulAddF64+0x2e8>
    4aec:	00090413          	mv	s0,s2
    4af0:	fc04849b          	addiw	s1,s1,-64
    4af4:	00000913          	li	s2,0
    4af8:	00040513          	mv	a0,s0
    4afc:	421000ef          	jal	571c <softfloat_countLeadingZeros64>
    4b00:	fff5061b          	addiw	a2,a0,-1
    4b04:	40c484bb          	subw	s1,s1,a2
    4b08:	16064863          	bltz	a2,4c78 <softfloat_mulAddF64+0x468>
    4b0c:	00090593          	mv	a1,s2
    4b10:	00040513          	mv	a0,s0
    4b14:	680000ef          	jal	5194 <softfloat_shortShift128Left>
    4b18:	04b13423          	sd	a1,72(sp)
    4b1c:	00058793          	mv	a5,a1
    4b20:	04a13023          	sd	a0,64(sp)
    4b24:	00050913          	mv	s2,a0
    4b28:	01203933          	snez	s2,s2
    4b2c:	00f96633          	or	a2,s2,a5
    4b30:	e71ff06f          	j	49a0 <softfloat_mulAddF64+0x190>
    4b34:	ea0914e3          	bnez	s2,49dc <softfloat_mulAddF64+0x1cc>
    4b38:	012c6933          	or	s2,s8,s2
    4b3c:	ef1ff06f          	j	4a2c <softfloat_mulAddF64+0x21c>
    4b40:	40c0063b          	negw	a2,a2
    4b44:	00090513          	mv	a0,s2
    4b48:	000b0593          	mv	a1,s6
    4b4c:	500000ef          	jal	504c <softfloat_shift128RightJam>
    4b50:	00050793          	mv	a5,a0
    4b54:	02b13423          	sd	a1,40(sp)
    4b58:	00058613          	mv	a2,a1
    4b5c:	00050693          	mv	a3,a0
    4b60:	00000593          	li	a1,0
    4b64:	00040513          	mv	a0,s0
    4b68:	02f13023          	sd	a5,32(sp)
    4b6c:	688000ef          	jal	51f4 <softfloat_sub128>
    4b70:	04b13423          	sd	a1,72(sp)
    4b74:	04a13023          	sd	a0,64(sp)
    4b78:	00050913          	mv	s2,a0
    4b7c:	00058413          	mv	s0,a1
    4b80:	000a0493          	mv	s1,s4
    4b84:	000a8993          	mv	s3,s5
    4b88:	f61ff06f          	j	4ae8 <softfloat_mulAddF64+0x2d8>
    4b8c:	00050693          	mv	a3,a0
    4b90:	00058613          	mv	a2,a1
    4b94:	00000513          	li	a0,0
    4b98:	00000593          	li	a1,0
    4b9c:	658000ef          	jal	51f4 <softfloat_sub128>
    4ba0:	04b13423          	sd	a1,72(sp)
    4ba4:	0019c993          	xori	s3,s3,1
    4ba8:	04a13023          	sd	a0,64(sp)
    4bac:	00050913          	mv	s2,a0
    4bb0:	00058413          	mv	s0,a1
    4bb4:	f35ff06f          	j	4ae8 <softfloat_mulAddF64+0x2d8>
    4bb8:	00050593          	mv	a1,a0
    4bbc:	000b8613          	mv	a2,s7
    4bc0:	00090513          	mv	a0,s2
    4bc4:	5d0000ef          	jal	5194 <softfloat_shortShift128Left>
    4bc8:	02b13423          	sd	a1,40(sp)
    4bcc:	00058913          	mv	s2,a1
    4bd0:	c014849b          	addiw	s1,s1,-1023
    4bd4:	02a13023          	sd	a0,32(sp)
    4bd8:	00050b13          	mv	s6,a0
    4bdc:	dadff06f          	j	4988 <softfloat_mulAddF64+0x178>
    4be0:	00040513          	mv	a0,s0
    4be4:	00000593          	li	a1,0
    4be8:	464000ef          	jal	504c <softfloat_shift128RightJam>
    4bec:	00050793          	mv	a5,a0
    4bf0:	02b13c23          	sd	a1,56(sp)
    4bf4:	00058613          	mv	a2,a1
    4bf8:	00050693          	mv	a3,a0
    4bfc:	000b0593          	mv	a1,s6
    4c00:	00090513          	mv	a0,s2
    4c04:	02f13823          	sd	a5,48(sp)
    4c08:	5ec000ef          	jal	51f4 <softfloat_sub128>
    4c0c:	04b13423          	sd	a1,72(sp)
    4c10:	00058413          	mv	s0,a1
    4c14:	04a13023          	sd	a0,64(sp)
    4c18:	00050913          	mv	s2,a0
    4c1c:	ecdff06f          	j	4ae8 <softfloat_mulAddF64+0x2d8>
    4c20:	06c05663          	blez	a2,4c8c <softfloat_mulAddF64+0x47c>
    4c24:	00000593          	li	a1,0
    4c28:	00040513          	mv	a0,s0
    4c2c:	420000ef          	jal	504c <softfloat_shift128RightJam>
    4c30:	00050793          	mv	a5,a0
    4c34:	00058613          	mv	a2,a1
    4c38:	02b13c23          	sd	a1,56(sp)
    4c3c:	00050693          	mv	a3,a0
    4c40:	000b0593          	mv	a1,s6
    4c44:	00090513          	mv	a0,s2
    4c48:	02f13823          	sd	a5,48(sp)
    4c4c:	aecff0ef          	jal	3f38 <softfloat_add128>
    4c50:	00a03633          	snez	a2,a0
    4c54:	04b13423          	sd	a1,72(sp)
    4c58:	04a13023          	sd	a0,64(sp)
    4c5c:	00b66633          	or	a2,a2,a1
    4c60:	fff00793          	li	a5,-1
    4c64:	0027d793          	srli	a5,a5,0x2
    4c68:	d2c7ece3          	bltu	a5,a2,49a0 <softfloat_mulAddF64+0x190>
    4c6c:	fff4849b          	addiw	s1,s1,-1
    4c70:	00161613          	slli	a2,a2,0x1
    4c74:	d2dff06f          	j	49a0 <softfloat_mulAddF64+0x190>
    4c78:	40c005bb          	negw	a1,a2
    4c7c:	00040513          	mv	a0,s0
    4c80:	54c000ef          	jal	51cc <softfloat_shortShift64RightJam>
    4c84:	00050793          	mv	a5,a0
    4c88:	ea1ff06f          	j	4b28 <softfloat_mulAddF64+0x318>
    4c8c:	00061c63          	bnez	a2,4ca4 <softfloat_mulAddF64+0x494>
    4c90:	012407b3          	add	a5,s0,s2
    4c94:	01603633          	snez	a2,s6
    4c98:	00c7e633          	or	a2,a5,a2
    4c9c:	000a0493          	mv	s1,s4
    4ca0:	fc1ff06f          	j	4c60 <softfloat_mulAddF64+0x450>
    4ca4:	00090513          	mv	a0,s2
    4ca8:	40c005bb          	negw	a1,a2
    4cac:	4c0000ef          	jal	516c <softfloat_shift64RightJam>
    4cb0:	00050913          	mv	s2,a0
    4cb4:	fddff06f          	j	4c90 <softfloat_mulAddF64+0x480>

0000000000004cb8 <softfloat_normSubnormalF32Sig>:
    4cb8:	fe010113          	addi	sp,sp,-32
    4cbc:	00113c23          	sd	ra,24(sp)
    4cc0:	00813823          	sd	s0,16(sp)
    4cc4:	00050413          	mv	s0,a0
    4cc8:	20d000ef          	jal	56d4 <softfloat_countLeadingZeros32>
    4ccc:	ff85051b          	addiw	a0,a0,-8
    4cd0:	00100793          	li	a5,1
    4cd4:	40a787bb          	subw	a5,a5,a0
    4cd8:	01813083          	ld	ra,24(sp)
    4cdc:	00a4143b          	sllw	s0,s0,a0
    4ce0:	02079513          	slli	a0,a5,0x20
    4ce4:	02041413          	slli	s0,s0,0x20
    4ce8:	02055513          	srli	a0,a0,0x20
    4cec:	00856533          	or	a0,a0,s0
    4cf0:	01013403          	ld	s0,16(sp)
    4cf4:	02010113          	addi	sp,sp,32
    4cf8:	00008067          	ret

0000000000004cfc <softfloat_normSubnormalF64Sig>:
    4cfc:	fe010113          	addi	sp,sp,-32
    4d00:	00113c23          	sd	ra,24(sp)
    4d04:	00813823          	sd	s0,16(sp)
    4d08:	00050413          	mv	s0,a0
    4d0c:	211000ef          	jal	571c <softfloat_countLeadingZeros64>
    4d10:	ff55059b          	addiw	a1,a0,-11
    4d14:	00100793          	li	a5,1
    4d18:	01813083          	ld	ra,24(sp)
    4d1c:	40b787bb          	subw	a5,a5,a1
    4d20:	00f12023          	sw	a5,0(sp)
    4d24:	00013503          	ld	a0,0(sp)
    4d28:	00b415b3          	sll	a1,s0,a1
    4d2c:	01013403          	ld	s0,16(sp)
    4d30:	02010113          	addi	sp,sp,32
    4d34:	00008067          	ret

0000000000004d38 <softfloat_roundPackToF32>:
    4d38:	fe010113          	addi	sp,sp,-32
    4d3c:	00813823          	sd	s0,16(sp)
    4d40:	00913423          	sd	s1,8(sp)
    4d44:	01213023          	sd	s2,0(sp)
    4d48:	00113c23          	sd	ra,24(sp)
    4d4c:	ffb27793          	andi	a5,tp,-5
    4d50:	00050493          	mv	s1,a0
    4d54:	00020913          	mv	s2,tp
    4d58:	04000413          	li	s0,64
    4d5c:	02078863          	beqz	a5,4d8c <softfloat_roundPackToF32+0x54>
    4d60:	00100793          	li	a5,1
    4d64:	00000413          	li	s0,0
    4d68:	02f20263          	beq	tp,a5,4d8c <softfloat_roundPackToF32+0x54>
    4d6c:	00153413          	seqz	s0,a0
    4d70:	00300793          	li	a5,3
    4d74:	4087843b          	subw	s0,a5,s0
    4d78:	4044043b          	subw	s0,s0,tp
    4d7c:	00143413          	seqz	s0,s0
    4d80:	4080043b          	negw	s0,s0
    4d84:	f8147413          	andi	s0,s0,-127
    4d88:	07f4041b          	addiw	s0,s0,127
    4d8c:	0105969b          	slliw	a3,a1,0x10
    4d90:	0106d69b          	srliw	a3,a3,0x10
    4d94:	0fc00793          	li	a5,252
    4d98:	04d7d463          	ble	a3,a5,4de0 <softfloat_roundPackToF32+0xa8>
    4d9c:	0a05c463          	bltz	a1,4e44 <softfloat_roundPackToF32+0x10c>
    4da0:	0fd00793          	li	a5,253
    4da4:	00f59663          	bne	a1,a5,4db0 <softfloat_roundPackToF32+0x78>
    4da8:	00c4053b          	addw	a0,s0,a2
    4dac:	02055c63          	bgez	a0,4de4 <softfloat_roundPackToF32+0xac>
    4db0:	0012e7f3          	csrrs	a5,fflags,5
    4db4:	01813083          	ld	ra,24(sp)
    4db8:	01f4951b          	slliw	a0,s1,0x1f
    4dbc:	7f800737          	lui	a4,0x7f800
    4dc0:	00e5073b          	addw	a4,a0,a4
    4dc4:	00143513          	seqz	a0,s0
    4dc8:	40a7053b          	subw	a0,a4,a0
    4dcc:	01013403          	ld	s0,16(sp)
    4dd0:	00813483          	ld	s1,8(sp)
    4dd4:	00013903          	ld	s2,0(sp)
    4dd8:	02010113          	addi	sp,sp,32
    4ddc:	00008067          	ret
    4de0:	00c4053b          	addw	a0,s0,a2
    4de4:	07f67613          	andi	a2,a2,127
    4de8:	fff00713          	li	a4,-1
    4dec:	00060e63          	beqz	a2,4e08 <softfloat_roundPackToF32+0xd0>
    4df0:	0010e7f3          	csrrs	a5,fflags,1
    4df4:	fc06061b          	addiw	a2,a2,-64
    4df8:	00193713          	seqz	a4,s2
    4dfc:	00163613          	seqz	a2,a2
    4e00:	00c77733          	and	a4,a4,a2
    4e04:	fff74713          	not	a4,a4
    4e08:	0075551b          	srliw	a0,a0,0x7
    4e0c:	00e577b3          	and	a5,a0,a4
    4e10:	01f4951b          	slliw	a0,s1,0x1f
    4e14:	00000713          	li	a4,0
    4e18:	02079263          	bnez	a5,4e3c <softfloat_roundPackToF32+0x104>
    4e1c:	01813083          	ld	ra,24(sp)
    4e20:	00a787bb          	addw	a5,a5,a0
    4e24:	00e7853b          	addw	a0,a5,a4
    4e28:	01013403          	ld	s0,16(sp)
    4e2c:	00813483          	ld	s1,8(sp)
    4e30:	00013903          	ld	s2,0(sp)
    4e34:	02010113          	addi	sp,sp,32
    4e38:	00008067          	ret
    4e3c:	0175971b          	slliw	a4,a1,0x17
    4e40:	fddff06f          	j	4e1c <softfloat_roundPackToF32+0xe4>
    4e44:	00060513          	mv	a0,a2
    4e48:	40b005bb          	negw	a1,a1
    4e4c:	28c000ef          	jal	50d8 <softfloat_shift32RightJam>
    4e50:	07f57613          	andi	a2,a0,127
    4e54:	00060a63          	beqz	a2,4e68 <softfloat_roundPackToF32+0x130>
    4e58:	001167f3          	csrrs	a5,fflags,2
    4e5c:	00000593          	li	a1,0
    4e60:	00a4053b          	addw	a0,s0,a0
    4e64:	f8dff06f          	j	4df0 <softfloat_roundPackToF32+0xb8>
    4e68:	00a4053b          	addw	a0,s0,a0
    4e6c:	fff00713          	li	a4,-1
    4e70:	00000593          	li	a1,0
    4e74:	f95ff06f          	j	4e08 <softfloat_roundPackToF32+0xd0>

0000000000004e78 <softfloat_roundPackToF64>:
    4e78:	fe010113          	addi	sp,sp,-32
    4e7c:	00813823          	sd	s0,16(sp)
    4e80:	00913423          	sd	s1,8(sp)
    4e84:	01213023          	sd	s2,0(sp)
    4e88:	00113c23          	sd	ra,24(sp)
    4e8c:	ffb27793          	andi	a5,tp,-5
    4e90:	00050493          	mv	s1,a0
    4e94:	00020913          	mv	s2,tp
    4e98:	20000413          	li	s0,512
    4e9c:	02078863          	beqz	a5,4ecc <softfloat_roundPackToF64+0x54>
    4ea0:	00100793          	li	a5,1
    4ea4:	00000413          	li	s0,0
    4ea8:	02f20263          	beq	tp,a5,4ecc <softfloat_roundPackToF64+0x54>
    4eac:	00153413          	seqz	s0,a0
    4eb0:	00300793          	li	a5,3
    4eb4:	4087843b          	subw	s0,a5,s0
    4eb8:	4044043b          	subw	s0,s0,tp
    4ebc:	00143413          	seqz	s0,s0
    4ec0:	4080043b          	negw	s0,s0
    4ec4:	c0147413          	andi	s0,s0,-1023
    4ec8:	3ff4041b          	addiw	s0,s0,1023
    4ecc:	0105969b          	slliw	a3,a1,0x10
    4ed0:	0106d69b          	srliw	a3,a3,0x10
    4ed4:	7fc00793          	li	a5,2044
    4ed8:	04d7d663          	ble	a3,a5,4f24 <softfloat_roundPackToF64+0xac>
    4edc:	0a05c663          	bltz	a1,4f88 <softfloat_roundPackToF64+0x110>
    4ee0:	7fd00793          	li	a5,2045
    4ee4:	00f59663          	bne	a1,a5,4ef0 <softfloat_roundPackToF64+0x78>
    4ee8:	00c40533          	add	a0,s0,a2
    4eec:	02055e63          	bgez	a0,4f28 <softfloat_roundPackToF64+0xb0>
    4ef0:	0012e7f3          	csrrs	a5,fflags,5
    4ef4:	7ff00513          	li	a0,2047
    4ef8:	01813083          	ld	ra,24(sp)
    4efc:	03f49793          	slli	a5,s1,0x3f
    4f00:	03451513          	slli	a0,a0,0x34
    4f04:	00a78733          	add	a4,a5,a0
    4f08:	00143513          	seqz	a0,s0
    4f0c:	40a70533          	sub	a0,a4,a0
    4f10:	01013403          	ld	s0,16(sp)
    4f14:	00813483          	ld	s1,8(sp)
    4f18:	00013903          	ld	s2,0(sp)
    4f1c:	02010113          	addi	sp,sp,32
    4f20:	00008067          	ret
    4f24:	00c40533          	add	a0,s0,a2
    4f28:	3ff67613          	andi	a2,a2,1023
    4f2c:	fff00713          	li	a4,-1
    4f30:	00060e63          	beqz	a2,4f4c <softfloat_roundPackToF64+0xd4>
    4f34:	0010e7f3          	csrrs	a5,fflags,1
    4f38:	e006061b          	addiw	a2,a2,-512
    4f3c:	00193713          	seqz	a4,s2
    4f40:	00163613          	seqz	a2,a2
    4f44:	00c77733          	and	a4,a4,a2
    4f48:	fff74713          	not	a4,a4
    4f4c:	00a55413          	srli	s0,a0,0xa
    4f50:	00e477b3          	and	a5,s0,a4
    4f54:	03f49493          	slli	s1,s1,0x3f
    4f58:	00000513          	li	a0,0
    4f5c:	02079263          	bnez	a5,4f80 <softfloat_roundPackToF64+0x108>
    4f60:	01813083          	ld	ra,24(sp)
    4f64:	009787b3          	add	a5,a5,s1
    4f68:	00a78533          	add	a0,a5,a0
    4f6c:	01013403          	ld	s0,16(sp)
    4f70:	00813483          	ld	s1,8(sp)
    4f74:	00013903          	ld	s2,0(sp)
    4f78:	02010113          	addi	sp,sp,32
    4f7c:	00008067          	ret
    4f80:	03459513          	slli	a0,a1,0x34
    4f84:	fddff06f          	j	4f60 <softfloat_roundPackToF64+0xe8>
    4f88:	00060513          	mv	a0,a2
    4f8c:	40b005bb          	negw	a1,a1
    4f90:	1dc000ef          	jal	516c <softfloat_shift64RightJam>
    4f94:	3ff57613          	andi	a2,a0,1023
    4f98:	00060a63          	beqz	a2,4fac <softfloat_roundPackToF64+0x134>
    4f9c:	001167f3          	csrrs	a5,fflags,2
    4fa0:	00000593          	li	a1,0
    4fa4:	00a40533          	add	a0,s0,a0
    4fa8:	f8dff06f          	j	4f34 <softfloat_roundPackToF64+0xbc>
    4fac:	00a40533          	add	a0,s0,a0
    4fb0:	fff00713          	li	a4,-1
    4fb4:	00000593          	li	a1,0
    4fb8:	f95ff06f          	j	4f4c <softfloat_roundPackToF64+0xd4>

0000000000004fbc <softfloat_roundPackToUI64>:
    4fbc:	ffb6f793          	andi	a5,a3,-5
    4fc0:	02078863          	beqz	a5,4ff0 <softfloat_roundPackToUI64+0x34>
    4fc4:	00100793          	li	a5,1
    4fc8:	00f68863          	beq	a3,a5,4fd8 <softfloat_roundPackToUI64+0x1c>
    4fcc:	00153793          	seqz	a5,a0
    4fd0:	0027879b          	addiw	a5,a5,2
    4fd4:	06d78863          	beq	a5,a3,5044 <softfloat_roundPackToUI64+0x88>
    4fd8:	02051a63          	bnez	a0,500c <softfloat_roundPackToUI64+0x50>
    4fdc:	00058513          	mv	a0,a1
    4fe0:	02070463          	beqz	a4,5008 <softfloat_roundPackToUI64+0x4c>
    4fe4:	02060263          	beqz	a2,5008 <softfloat_roundPackToUI64+0x4c>
    4fe8:	0010e7f3          	csrrs	a5,fflags,1
    4fec:	00008067          	ret
    4ff0:	03f65793          	srli	a5,a2,0x3f
    4ff4:	fe0782e3          	beqz	a5,4fd8 <softfloat_roundPackToUI64+0x1c>
    4ff8:	00158593          	addi	a1,a1,1 # ffffffff80000001 <_end+0xffffffff7f7be091>
    4ffc:	02059063          	bnez	a1,501c <softfloat_roundPackToUI64+0x60>
    5000:	001867f3          	csrrs	a5,fflags,16
    5004:	fff00513          	li	a0,-1
    5008:	00008067          	ret
    500c:	fc0588e3          	beqz	a1,4fdc <softfloat_roundPackToUI64+0x20>
    5010:	001867f3          	csrrs	a5,fflags,16
    5014:	fff00513          	li	a0,-1
    5018:	ff1ff06f          	j	5008 <softfloat_roundPackToUI64+0x4c>
    501c:	fff00793          	li	a5,-1
    5020:	0017d793          	srli	a5,a5,0x1
    5024:	00f677b3          	and	a5,a2,a5
    5028:	0017b793          	seqz	a5,a5
    502c:	0016b693          	seqz	a3,a3
    5030:	00d7f7b3          	and	a5,a5,a3
    5034:	fff7c793          	not	a5,a5
    5038:	00b7f5b3          	and	a1,a5,a1
    503c:	fa0500e3          	beqz	a0,4fdc <softfloat_roundPackToUI64+0x20>
    5040:	fcdff06f          	j	500c <softfloat_roundPackToUI64+0x50>
    5044:	00c037b3          	snez	a5,a2
    5048:	fadff06f          	j	4ff4 <softfloat_roundPackToUI64+0x38>

000000000000504c <softfloat_shift128RightJam>:
    504c:	03f00793          	li	a5,63
    5050:	ff010113          	addi	sp,sp,-16
    5054:	04c7f863          	bleu	a2,a5,50a4 <softfloat_shift128RightJam+0x58>
    5058:	07f00793          	li	a5,127
    505c:	00c7fc63          	bleu	a2,a5,5074 <softfloat_shift128RightJam+0x28>
    5060:	00b56533          	or	a0,a0,a1
    5064:	00a03533          	snez	a0,a0
    5068:	00000593          	li	a1,0
    506c:	01010113          	addi	sp,sp,16
    5070:	00008067          	ret
    5074:	03f67613          	andi	a2,a2,63
    5078:	00100793          	li	a5,1
    507c:	00c797b3          	sll	a5,a5,a2
    5080:	fff78793          	addi	a5,a5,-1 # 3fffffff <_end+0x3f7be08f>
    5084:	00a7f7b3          	and	a5,a5,a0
    5088:	00b7e5b3          	or	a1,a5,a1
    508c:	00b037b3          	snez	a5,a1
    5090:	00c55533          	srl	a0,a0,a2
    5094:	00a7e533          	or	a0,a5,a0
    5098:	00000593          	li	a1,0
    509c:	01010113          	addi	sp,sp,16
    50a0:	00008067          	ret
    50a4:	40c007bb          	negw	a5,a2
    50a8:	02061613          	slli	a2,a2,0x20
    50ac:	02065613          	srli	a2,a2,0x20
    50b0:	03f7f793          	andi	a5,a5,63
    50b4:	00f516b3          	sll	a3,a0,a5
    50b8:	00c5d733          	srl	a4,a1,a2
    50bc:	00f597b3          	sll	a5,a1,a5
    50c0:	00e6e733          	or	a4,a3,a4
    50c4:	00f037b3          	snez	a5,a5
    50c8:	00c555b3          	srl	a1,a0,a2
    50cc:	01010113          	addi	sp,sp,16
    50d0:	00f76533          	or	a0,a4,a5
    50d4:	00008067          	ret

00000000000050d8 <softfloat_shift32RightJam>:
    50d8:	01f00793          	li	a5,31
    50dc:	00b7f663          	bleu	a1,a5,50e8 <softfloat_shift32RightJam+0x10>
    50e0:	00a03533          	snez	a0,a0
    50e4:	00008067          	ret
    50e8:	40b007bb          	negw	a5,a1
    50ec:	00f517bb          	sllw	a5,a0,a5
    50f0:	00f037b3          	snez	a5,a5
    50f4:	00b5553b          	srlw	a0,a0,a1
    50f8:	00a7e533          	or	a0,a5,a0
    50fc:	00008067          	ret

0000000000005100 <softfloat_shift64ExtraRightJam>:
    5100:	03f00793          	li	a5,63
    5104:	ff010113          	addi	sp,sp,-16
    5108:	02c7f463          	bleu	a2,a5,5130 <softfloat_shift64ExtraRightJam+0x30>
    510c:	04000793          	li	a5,64
    5110:	04f60063          	beq	a2,a5,5150 <softfloat_shift64ExtraRightJam+0x50>
    5114:	00a037b3          	snez	a5,a0
    5118:	00000613          	li	a2,0
    511c:	00b035b3          	snez	a1,a1
    5120:	00060513          	mv	a0,a2
    5124:	00f5e5b3          	or	a1,a1,a5
    5128:	01010113          	addi	sp,sp,16
    512c:	00008067          	ret
    5130:	40c007bb          	negw	a5,a2
    5134:	00f517b3          	sll	a5,a0,a5
    5138:	00c55633          	srl	a2,a0,a2
    513c:	00b035b3          	snez	a1,a1
    5140:	00060513          	mv	a0,a2
    5144:	00f5e5b3          	or	a1,a1,a5
    5148:	01010113          	addi	sp,sp,16
    514c:	00008067          	ret
    5150:	00050793          	mv	a5,a0
    5154:	00000613          	li	a2,0
    5158:	00b035b3          	snez	a1,a1
    515c:	00060513          	mv	a0,a2
    5160:	00f5e5b3          	or	a1,a1,a5
    5164:	01010113          	addi	sp,sp,16
    5168:	00008067          	ret

000000000000516c <softfloat_shift64RightJam>:
    516c:	03f00793          	li	a5,63
    5170:	00b7f663          	bleu	a1,a5,517c <softfloat_shift64RightJam+0x10>
    5174:	00a03533          	snez	a0,a0
    5178:	00008067          	ret
    517c:	40b007bb          	negw	a5,a1
    5180:	00f517b3          	sll	a5,a0,a5
    5184:	00f037b3          	snez	a5,a5
    5188:	00b55533          	srl	a0,a0,a1
    518c:	00a7e533          	or	a0,a5,a0
    5190:	00008067          	ret

0000000000005194 <softfloat_shortShift128Left>:
    5194:	02061793          	slli	a5,a2,0x20
    5198:	0207d793          	srli	a5,a5,0x20
    519c:	40c0063b          	negw	a2,a2
    51a0:	00f51733          	sll	a4,a0,a5
    51a4:	ff010113          	addi	sp,sp,-16
    51a8:	00c5d633          	srl	a2,a1,a2
    51ac:	00f59533          	sll	a0,a1,a5
    51b0:	01010113          	addi	sp,sp,16
    51b4:	00e665b3          	or	a1,a2,a4
    51b8:	00008067          	ret

00000000000051bc <softfloat_shortShift32Right1Jam>:
    51bc:	0015579b          	srliw	a5,a0,0x1
    51c0:	00157513          	andi	a0,a0,1
    51c4:	00a7e533          	or	a0,a5,a0
    51c8:	00008067          	ret

00000000000051cc <softfloat_shortShift64RightJam>:
    51cc:	02059593          	slli	a1,a1,0x20
    51d0:	0205d593          	srli	a1,a1,0x20
    51d4:	00100793          	li	a5,1
    51d8:	00b797b3          	sll	a5,a5,a1
    51dc:	fff78793          	addi	a5,a5,-1
    51e0:	00a7f7b3          	and	a5,a5,a0
    51e4:	00f037b3          	snez	a5,a5
    51e8:	00b55533          	srl	a0,a0,a1
    51ec:	00a7e533          	or	a0,a5,a0
    51f0:	00008067          	ret

00000000000051f4 <softfloat_sub128>:
    51f4:	40c50633          	sub	a2,a0,a2
    51f8:	ff010113          	addi	sp,sp,-16
    51fc:	00d5b7b3          	sltu	a5,a1,a3
    5200:	40d58533          	sub	a0,a1,a3
    5204:	01010113          	addi	sp,sp,16
    5208:	40f605b3          	sub	a1,a2,a5
    520c:	00008067          	ret

0000000000005210 <softfloat_subMagsF32>:
    5210:	fd010113          	addi	sp,sp,-48
    5214:	02813023          	sd	s0,32(sp)
    5218:	01213823          	sd	s2,16(sp)
    521c:	01313423          	sd	s3,8(sp)
    5220:	0175591b          	srliw	s2,a0,0x17
    5224:	0175d99b          	srliw	s3,a1,0x17
    5228:	00800437          	lui	s0,0x800
    522c:	fff4041b          	addiw	s0,s0,-1
    5230:	0ff97913          	andi	s2,s2,255
    5234:	0ff9f993          	andi	s3,s3,255
    5238:	00913c23          	sd	s1,24(sp)
    523c:	01413023          	sd	s4,0(sp)
    5240:	008574b3          	and	s1,a0,s0
    5244:	02113423          	sd	ra,40(sp)
    5248:	0085f433          	and	s0,a1,s0
    524c:	413907bb          	subw	a5,s2,s3
    5250:	00060a13          	mv	s4,a2
    5254:	0074949b          	slliw	s1,s1,0x7
    5258:	0074141b          	slliw	s0,s0,0x7
    525c:	04f05e63          	blez	a5,52b8 <softfloat_subMagsF32+0xa8>
    5260:	0ff00713          	li	a4,255
    5264:	06e90e63          	beq	s2,a4,52e0 <softfloat_subMagsF32+0xd0>
    5268:	40000537          	lui	a0,0x40000
    526c:	00099463          	bnez	s3,5274 <softfloat_subMagsF32+0x64>
    5270:	00040513          	mv	a0,s0
    5274:	00078593          	mv	a1,a5
    5278:	0085053b          	addw	a0,a0,s0
    527c:	e5dff0ef          	jal	50d8 <softfloat_shift32RightJam>
    5280:	400007b7          	lui	a5,0x40000
    5284:	00050413          	mv	s0,a0
    5288:	00f4e4b3          	or	s1,s1,a5
    528c:	4084863b          	subw	a2,s1,s0
    5290:	fff9059b          	addiw	a1,s2,-1
    5294:	000a0513          	mv	a0,s4
    5298:	02813083          	ld	ra,40(sp)
    529c:	02013403          	ld	s0,32(sp)
    52a0:	01813483          	ld	s1,24(sp)
    52a4:	01013903          	ld	s2,16(sp)
    52a8:	00813983          	ld	s3,8(sp)
    52ac:	00013a03          	ld	s4,0(sp)
    52b0:	03010113          	addi	sp,sp,48
    52b4:	4cc0006f          	j	5780 <softfloat_normRoundPackToF32>
    52b8:	08079063          	bnez	a5,5338 <softfloat_subMagsF32+0x128>
    52bc:	0ff00793          	li	a5,255
    52c0:	0af90863          	beq	s2,a5,5370 <softfloat_subMagsF32+0x160>
    52c4:	00091663          	bnez	s2,52d0 <softfloat_subMagsF32+0xc0>
    52c8:	00100993          	li	s3,1
    52cc:	00098913          	mv	s2,s3
    52d0:	fa946ee3          	bltu	s0,s1,528c <softfloat_subMagsF32+0x7c>
    52d4:	0a84f863          	bleu	s0,s1,5384 <softfloat_subMagsF32+0x174>
    52d8:	00098913          	mv	s2,s3
    52dc:	0880006f          	j	5364 <softfloat_subMagsF32+0x154>
    52e0:	02048c63          	beqz	s1,5318 <softfloat_subMagsF32+0x108>
    52e4:	02813083          	ld	ra,40(sp)
    52e8:	02013403          	ld	s0,32(sp)
    52ec:	01813483          	ld	s1,24(sp)
    52f0:	01013903          	ld	s2,16(sp)
    52f4:	00813983          	ld	s3,8(sp)
    52f8:	00013a03          	ld	s4,0(sp)
    52fc:	03010113          	addi	sp,sp,48
    5300:	33c0006f          	j	563c <softfloat_propagateNaNF32UI>
    5304:	fe0410e3          	bnez	s0,52e4 <softfloat_subMagsF32+0xd4>
    5308:	00164513          	xori	a0,a2,1
    530c:	01f5151b          	slliw	a0,a0,0x1f
    5310:	7f8007b7          	lui	a5,0x7f800
    5314:	00f5053b          	addw	a0,a0,a5
    5318:	02813083          	ld	ra,40(sp)
    531c:	02013403          	ld	s0,32(sp)
    5320:	01813483          	ld	s1,24(sp)
    5324:	01013903          	ld	s2,16(sp)
    5328:	00813983          	ld	s3,8(sp)
    532c:	00013a03          	ld	s4,0(sp)
    5330:	03010113          	addi	sp,sp,48
    5334:	00008067          	ret
    5338:	0ff00713          	li	a4,255
    533c:	fce984e3          	beq	s3,a4,5304 <softfloat_subMagsF32+0xf4>
    5340:	40000537          	lui	a0,0x40000
    5344:	04090c63          	beqz	s2,539c <softfloat_subMagsF32+0x18c>
    5348:	40f005bb          	negw	a1,a5
    534c:	0095053b          	addw	a0,a0,s1
    5350:	d89ff0ef          	jal	50d8 <softfloat_shift32RightJam>
    5354:	400007b7          	lui	a5,0x40000
    5358:	00050493          	mv	s1,a0
    535c:	00f46433          	or	s0,s0,a5
    5360:	00098913          	mv	s2,s3
